(lp0
I2
aI1
aI1
aI11
aI1
aI3
aI2
aI12
aI1
aI1
aI1
aI3
aI2
aI1
aI0
aI0
aI1
aI5
aI1
aI1
aI1
aI3
aI1
aI1
aI1
aI0
aI1
aI2
aI1
aI4
aI3
aI1
aI1
aI3
aI1
aI1
aI4
aI1
aI1
aI2
aI1
aI1
aI27
aI1
aI1
aI0
aI2
aI1
aI2
aI1
aI4
aI0
aI0
aI1
aI3
aI1
aI0
aI4
aI1
aI0
aI0
aI1
aI2
aI1
aI2
aI2
aI2
aI1
aI1
aI2
aI1
aI0
aI1
aI3
aI0
aI1
aI1
aI2
aI1
aI1
aI1
aI0
aI1
aI2
aI1
aI1
aI3
aI0
aI0
aI0
aI1
aI1
aI1
aI0
aI1
aI1
aI1
aI2
aI0
aI1
aI1
aI3
aI1
aI0
aI1
aI2
aI2
aI3
aI1
aI1
aI0
aI1
aI1
aI2
aI1
aI0
aI1
aI4
aI1
aI2
aI0
aI1
aI1
aI1
aI10
aI0
aI10
aI8
aI2
aI2
aI1
aI1
aI2
aI4
aI2
aI2
aI2
aI1
aI1
aI2
aI4
aI1
aI1
aI4
aI2
aI0
aI6
aI1
aI8
aI1
aI0
aI1
aI0
aI1
aI2
aI3
aI1
aI1
aI4
aI16
aI2
aI1
aI3
aI0
aI1
aI4
aI1
aI1
aI1
aI3
aI1
aI1
aI1
aI1
aI2
aI2
aI1
aI2
aI3
aI1
aI1
aI1
aI4
aI1
aI2
aI1
aI0
aI1
aI0
aI2
aI1
aI1
aI2
aI1
aI1
aI1
aI1
aI0
aI2
aI1
aI0
aI3
aI3
aI0
aI4
aI0
aI1
aI1
aI1
aI0
aI2
aI2
aI3
aI1
aI1
aI2
aI2
aI1
aI1
aI3
aI1
aI2
aI0
aI1
aI0
aI2
aI0
aI3
aI1
aI1
aI1
aI1
aI2
aI1
aI2
aI1
aI2
aI1
aI6
aI1
aI2
aI6
aI1
aI2
aI1
aI1
aI0
aI0
aI2
aI0
aI2
aI1
aI2
aI2
aI1
aI4
aI2
aI2
aI1
aI1
aI0
aI5
aI3
aI1
aI7
aI1
aI1
aI1
aI3
aI2
aI2
aI1
aI1
aI5
aI1
aI0
aI5
aI0
aI0
aI3
aI4
aI1
aI3
aI2
aI2
aI3
aI0
aI1
aI3
aI1
aI1
aI1
aI1
aI0
aI4
aI1
aI1
aI0
aI1
aI1
aI1
aI0
aI1
aI1
aI2
aI4
aI0
aI3
aI1
aI1
aI0
aI2
aI1
aI4
aI2
aI1
aI2
aI1
aI2
aI2
aI1
aI3
aI1
aI1
aI1
aI2
aI2
aI2
aI2
aI1
aI3
aI0
aI2
aI0
aI10
aI1
aI2
aI1
aI4
aI1
aI6
aI1
aI3
aI1
aI1
aI3
aI1
aI2
aI1
aI1
aI1
aI0
aI2
aI8
aI2
aI8
aI1
aI1
aI1
aI3
aI1
aI1
aI2
aI1
aI0
aI0
aI1
aI1
aI1
aI3
aI1
aI0
aI1
aI9
aI9
aI1
aI1
aI0
aI5
aI5
aI1
aI1
aI2
aI1
aI0
aI6
aI1
aI3
aI0
aI7
aI2
aI0
aI1
aI3
aI1
aI0
aI1
aI1
aI0
aI2
aI1
aI2
aI1
aI2
aI2
aI1
aI3
aI3
aI1
aI1
aI1
aI11
aI2
aI2
aI4
aI1
aI2
aI5
aI1
aI1
aI9
aI1
aI1
aI4
aI1
aI1
aI1
aI1
aI4
aI1
aI5
aI1
aI1
aI1
aI1
aI2
aI1
aI1
aI2
aI1
aI1
aI2
aI1
aI6
aI1
aI1
aI1
aI2
aI1
aI1
aI12
aI4
aI2
aI1
aI1
aI20
aI1
aI1
aI1
aI1
aI2
aI1
aI4
aI1
aI1
aI1
aI2
aI1
aI2
aI1
aI1
aI1
aI1
aI0
aI5
aI1
aI4
aI4
aI1
aI3
aI1
aI3
aI1
aI1
aI3
aI2
aI2
aI1
aI1
aI1
aI3
aI2
aI1
aI1
aI0
aI3
aI2
aI1
aI1
aI4
aI1
aI1
aI0
aI1
aI1
aI1
aI0
aI0
aI1
aI3
aI2
aI1
aI2
aI6
aI2
aI1
aI5
aI1
aI1
aI1
aI1
aI1
aI3
aI1
aI1
aI1
aI2
aI1
aI3
aI2
aI1
aI3
aI1
aI2
aI1
aI4
aI1
aI1
aI0
aI2
aI1
aI1
aI2
aI5
aI1
aI1
aI2
aI5
aI4
aI1
aI1
aI1
aI0
aI1
aI3
aI1
aI0
aI1
aI1
aI2
aI0
aI1
aI0
aI0
aI2
aI3
aI2
aI1
aI1
aI3
aI2
aI1
aI1
aI0
aI1
aI1
aI5
aI18
aI0
aI2
aI1
aI1
aI0
aI3
aI2
aI1
aI0
aI1
aI1
aI1
aI1
aI1
aI3
aI1
aI3
aI1
aI3
aI1
aI1
aI1
aI2
aI1
aI4
aI2
aI0
aI3
aI1
aI1
aI2
aI1
aI9
aI2
aI4
aI1
aI1
aI1
aI3
aI1
aI1
aI2
aI4
aI0
aI2
aI1
aI1
aI1
aI1
aI2
aI4
aI2
aI1
aI4
aI0
aI1
aI1
aI1
aI1
aI5
aI1
aI3
aI1
aI0
aI1
aI18
aI0
aI2
aI1
aI6
aI5
aI2
aI3
aI0
aI1
aI1
aI1
aI1
aI1
aI1
aI0
aI1
aI2
aI0
aI1
aI2
aI1
aI2
aI1
aI2
aI4
aI1
aI4
aI1
aI1
aI3
aI2
aI1
aI1
aI0
aI1
aI1
aI0
aI1
aI2
aI2
aI0
aI1
aI0
aI1
aI0
aI1
aI1
aI1
aI1
aI3
aI1
aI3
aI2
aI1
aI0
aI3
aI1
aI2
aI1
aI0
aI2
aI1
aI2
aI1
aI1
aI4
aI2
aI0
aI3
aI0
aI1
aI2
aI3
aI1
aI1
aI2
aI4
aI2
aI1
aI4
aI0
aI1
aI0
aI1
aI0
aI3
aI2
aI0
aI2
aI1
aI1
aI1
aI1
aI1
aI1
aI1
aI1
aI0
aI2
aI1
aI1
aI0
aI1
aI1
aI2
aI1
aI0
aI0
aI0
aI1
aI1
aI6
aI1
aI1
aI2
aI2
aI2
aI2
aI2
aI2
aI4
aI5
aI2
aI1
aI1
aI1
aI2
aI4
aI3
aI6
aI3
aI0
aI2
aI0
aI1
aI1
aI1
aI1
aI1
aI1
aI1
aI1
aI1
aI1
aI1
aI2
aI1
aI6
aI1
aI0
aI1
aI2
aI2
aI0
aI6
aI1
aI1
aI0
aI3
aI1
aI3
aI1
aI4
aI3
aI1
aI2
aI1
aI2
aI0
aI1
aI1
aI1
aI1
aI1
aI1
aI2
aI1
aI1
aI1
aI0
aI2
aI1
aI0
aI2
aI1
aI1
aI1
aI0
aI1
aI0
aI1
aI0
aI1
aI2
aI1
aI3
aI1
aI1
aI1
aI2
aI2
aI1
aI2
aI1
aI2
aI1
aI0
aI0
aI1
aI2
aI6
aI1
aI1
aI0
aI1
aI2
aI1
aI1
aI0
aI4
aI9
aI2
aI2
aI1
aI2
aI1
aI0
aI7
aI1
aI1
aI2
aI1
aI1
aI0
aI2
aI1
aI1
aI0
aI1
aI7
aI1
aI0
aI2
aI2
aI1
aI2
aI0
aI2
aI3
aI5
aI1
aI6
aI1
aI1
aI4
aI1
aI1
aI1
aI1
aI1
aI1
aI0
aI1
aI1
aI2
aI4
aI1
aI0
aI7
aI3
aI0
aI5
aI3
aI1
aI3
aI2
aI1
aI3
aI1
aI1
aI2
aI1
aI2
aI1
aI2
aI2
aI1
aI1
aI1
aI1
aI1
aI2
aI1
aI1
aI1
aI1
aI1
aI3
aI1
aI1
aI1
aI4
aI1
aI1
aI1
aI1
aI1
aI0
aI1
aI2
aI1
aI0
aI0
aI1
aI1
aI2
aI1
aI2
aI2
aI2
aI2
aI1
aI4
aI2
aI1
aI2
aI3
aI1
aI5
aI1
aI1
aI3
aI2
aI2
aI1
aI1
aI1
aI3
aI1
aI5
aI1
aI1
aI1
aI3
aI1
aI1
aI0
aI0
aI1
aI2
aI1
aI12
aI1
aI1
aI1
aI2
aI0
aI1
aI1
aI2
aI16
aI1
aI1
aI12
aI4
aI3
aI1
aI0
aI1
aI2
aI2
aI0
aI1
aI2
aI1
aI7
aI1
aI2
aI1
aI1
aI1
aI3
aI1
aI1
aI7
aI0
aI2
aI1
aI0
aI1
aI1
aI1
aI2
aI1
aI9
aI0
aI0
aI1
aI0
aI1
aI5
aI1
aI3
aI0
aI1
aI3
aI3
aI1
aI1
aI1
aI1
aI1
aI2
aI1
aI0
aI2
aI3
aI1
aI2
aI1
aI1
aI2
aI1
aI4
aI2
aI2
aI4
aI2
aI1
aI1
aI1
aI3
aI0
aI1
aI0
aI1
aI4
aI1
aI1
aI1
aI1
aI1
aI17
aI0
aI1
aI1
aI2
aI2
aI1
aI16
aI4
aI1
aI2
aI1
aI1
aI1
aI3
aI18
aI1
aI1
aI1
aI3
aI3
aI0
aI2
aI6
aI0
aI1
aI0
aI1
aI1
aI1
aI2
aI1
aI2
aI0
aI3
aI0
aI1
aI2
aI1
aI1
aI1
aI2
aI1
aI1
aI0
aI1
aI0
aI1
aI4
aI0
aI2
aI1
aI3
aI1
aI2
aI1
aI1
aI11
aI1
aI1
aI1
aI3
aI1
aI1
aI1
aI4
aI1
aI4
aI1
aI2
aI4
aI2
aI2
aI1
aI3
aI6
aI1
aI4
aI0
aI2
aI0
aI2
aI0
aI4
aI7
aI1
aI1
aI1
aI1
aI1
aI0
aI1
aI3
aI1
aI13
aI6
aI1
aI1
aI1
aI2
aI1
aI2
aI1
aI0
aI1
aI1
aI2
aI1
aI0
aI1
aI2
aI1
aI2
aI1
aI2
aI2
aI2
aI1
aI0
aI1
aI1
aI1
aI2
aI1
aI1
aI1
aI2
aI1
aI0
aI2
aI3
aI1
aI2
aI2
aI0
aI4
aI1
aI10
aI2
aI2
aI1
aI1
aI2
aI1
aI1
aI1
aI1
aI0
aI2
aI1
aI1
aI0
aI1
aI1
aI6
aI1
aI6
aI2
aI6
aI6
aI2
aI1
aI1
aI2
aI1
aI3
aI1
aI1
aI2
aI1
aI5
aI0
aI2
aI1
aI4
aI1
aI1
aI10
aI2
aI2
aI4
aI2
aI1
aI1
aI2
aI1
aI2
aI1
aI3
aI1
aI1
aI10
aI2
aI7
aI2
aI5
aI1
aI1
aI0
aI0
aI1
aI8
aI1
aI4
aI1
aI1
aI1
aI1
aI3
aI0
aI6
aI1
aI1
aI1
aI2
aI2
aI2
aI1
aI1
aI2
aI1
aI0
aI1
aI2
aI2
aI1
aI1
aI3
aI1
aI1
aI3
aI0
aI2
aI1
aI2
aI2
aI1
aI1
aI1
aI1
aI0
aI1
aI2
aI1
aI1
aI0
aI1
aI1
aI2
aI2
aI2
aI1
aI3
aI1
aI1
aI0
aI1
aI1
aI1
aI0
aI0
aI3
aI1
aI4
aI2
aI2
aI3
aI4
aI4
aI2
aI1
aI2
aI3
aI0
aI1
aI0
aI3
aI1
aI5
aI1
aI1
aI1
aI1
aI1
aI2
aI2
aI0
aI6
aI1
aI4
aI2
aI1
aI4
aI2
aI6
aI1
aI2
aI1
aI1
aI2
aI1
aI2
aI2
aI4
aI2
aI2
aI1
aI1
aI1
aI2
aI3
aI1
aI0
aI0
aI12
aI0
aI4
aI5
aI5
aI0
aI4
aI1
aI2
aI1
aI1
aI4
aI1
aI0
aI4
aI1
aI1
aI3
aI2
aI1
aI1
aI1
aI2
aI0
aI0
aI4
aI2
aI3
aI2
aI5
aI1
aI0
aI0
aI2
aI1
aI4
aI6
aI1
aI4
aI1
aI2
aI2
aI0
aI1
aI2
aI0
aI0
aI1
aI5
aI3
aI2
aI1
aI2
aI1
aI2
aI1
aI1
aI1
aI0
aI1
aI1
aI1
aI2
aI1
aI1
aI1
aI3
aI1
aI1
aI1
aI0
aI0
aI1
aI1
aI1
aI1
aI1
aI2
aI10
aI1
aI0
aI0
aI1
aI2
aI3
aI2
aI2
aI1
aI1
aI1
aI5
aI4
aI1
aI4
aI0
aI2
aI1
aI2
aI1
aI2
aI1
aI1
aI1
aI5
aI1
aI6
aI1
aI1
aI2
aI1
aI1
aI2
aI1
aI0
aI0
aI1
aI0
aI7
aI1
aI0
aI4
aI0
aI2
aI2
aI1
aI2
aI1
aI1
aI3
aI3
aI1
aI1
aI1
aI1
aI0
aI1
aI1
aI1
aI1
aI2
aI2
aI1
aI1
aI0
aI1
aI4
aI2
aI1
aI1
aI1
aI3
aI1
aI1
aI1
aI2
aI1
aI1
aI1
aI2
aI8
aI0
aI2
aI0
aI2
aI1
aI0
aI1
aI1
aI1
aI1
aI0
aI2
aI2
aI1
aI4
aI2
aI6
aI1
aI3
aI2
aI0
aI0
aI1
aI1
aI1
aI1
aI1
aI2
aI1
aI0
aI1
aI1
aI3
aI1
aI1
aI6
aI1
aI1
aI1
aI1
aI0
aI1
aI1
aI1
aI1
aI2
aI1
aI0
aI3
aI3
aI1
aI2
aI1
aI0
aI1
aI1
aI2
aI0
aI0
aI1
aI1
aI1
aI1
aI1
aI1
aI3
aI0
aI3
aI3
aI1
aI0
aI1
aI1
aI1
aI4
aI2
aI1
aI1
aI1
aI0
aI1
aI0
aI7
aI4
aI1
aI2
aI2
aI1
aI1
aI1
aI1
aI1
aI2
aI10
aI1
aI1
aI0
aI2
aI1
aI2
aI1
aI1
aI1
aI1
aI1
aI1
aI4
aI7
aI2
aI1
aI0
aI0
aI2
aI2
aI1
aI2
aI3
aI1
aI1
aI4
aI4
aI2
aI5
aI23
aI0
aI2
aI2
aI1
aI1
aI1
aI1
aI1
aI0
aI2
aI0
aI2
aI1
aI4
aI2
aI1
aI1
aI0
aI0
aI2
aI1
aI2
aI1
aI2
aI0
aI5
aI4
aI0
aI1
aI1
aI1
aI1
aI2
aI1
aI1
aI1
aI3
aI3
aI1
aI2
aI3
aI1
aI3
aI0
aI1
aI2
aI1
aI1
aI1
aI1
aI2
aI1
aI2
aI0
aI1
aI1
aI1
aI5
aI0
aI2
aI3
aI0
aI1
aI0
aI1
aI1
aI3
aI1
aI0
aI2
aI1
aI26
aI1
aI1
aI2
aI1
aI2
aI1
aI1
aI0
aI1
aI0
aI0
aI1
aI5
aI1
aI15
aI5
aI2
aI1
aI3
aI0
aI1
aI1
aI1
aI2
aI1
aI4
aI1
aI1
aI2
aI2
aI1
aI4
aI5
aI1
aI1
aI1
aI1
aI2
aI1
aI1
aI1
aI0
aI3
aI1
aI1
aI1
aI1
aI4
aI1
aI1
aI1
aI1
aI2
aI2
aI0
aI2
aI1
aI1
aI2
aI2
aI3
aI7
aI1
aI1
aI0
aI1
aI1
aI1
aI1
aI1
aI1
aI1
aI3
aI0
aI31
aI0
aI2
aI1
aI1
aI1
aI1
aI3
aI1
aI1
aI2
aI1
aI1
aI1
aI2
aI1
aI0
aI2
aI1
aI0
aI0
aI7
aI1
aI1
aI1
aI2
aI0
aI2
aI2
aI8
aI0
aI1
aI1
aI1
aI1
aI1
aI6
aI2
aI1
aI3
aI2
aI0
aI3
aI1
aI1
aI2
aI4
aI0
aI1
aI4
aI1
aI0
aI1
aI1
aI1
aI1
aI0
aI2
aI1
aI0
aI1
aI1
aI1
aI6
aI0
aI0
aI3
aI3
aI0
aI2
aI2
aI1
aI2
aI1
aI1
aI2
aI1
aI5
aI3
aI2
aI1
aI2
aI1
aI3
aI1
aI3
aI1
aI1
aI1
aI1
aI1
aI1
aI2
aI4
aI7
aI1
aI3
aI0
aI0
aI1
aI1
aI2
aI4
aI1
aI1
aI1
aI1
aI0
aI1
aI1
aI0
aI17
aI2
aI2
aI1
aI4
aI1
aI1
aI1
aI1
aI1
aI1
aI1
aI1
aI2
aI4
aI1
aI2
aI1
aI3
aI1
aI1
aI3
aI1
aI1
aI2
aI1
aI1
aI1
aI1
aI0
aI3
aI3
aI6
aI1
aI1
aI1
aI1
aI1
aI1
aI0
aI2
aI1
aI1
aI1
aI1
aI1
aI0
aI4
aI1
aI1
aI2
aI2
aI1
aI1
aI2
aI0
aI0
aI1
aI2
aI1
aI1
aI2
aI1
aI1
aI3
aI2
aI1
aI1
aI3
aI1
aI1
aI5
aI1
aI0
aI1
aI1
aI0
aI2
aI2
aI1
aI3
aI1
aI1
aI10
aI1
aI0
aI1
aI2
aI2
aI1
aI1
aI2
aI1
aI2
aI1
aI7
aI2
aI1
aI1
aI5
aI2
aI1
aI2
aI1
aI1
aI0
aI0
aI1
aI1
aI2
aI1
aI1
aI2
aI0
aI1
aI0
aI1
aI2
aI1
aI1
aI0
aI1
aI2
aI1
aI1
aI1
aI3
aI2
aI1
aI0
aI4
aI2
aI1
aI1
aI1
aI3
aI2
aI1
aI4
aI1
aI2
aI1
aI4
aI1
aI1
aI0
aI0
aI1
aI1
aI1
aI1
aI1
aI2
aI1
aI2
aI0
aI0
aI1
aI5
aI2
aI2
aI1
aI17
aI1
aI3
aI6
aI1
aI0
aI2
aI1
aI1
aI1
aI1
aI5
aI1
aI0
aI1
aI0
aI2
aI3
aI0
aI0
aI2
aI1
aI0
aI1
aI0
aI5
aI0
aI1
aI5
aI2
aI1
aI2
aI1
aI1
aI3
aI2
aI4
aI1
aI1
aI7
aI1
aI1
aI0
aI0
aI2
aI2
aI1
aI1
aI0
aI1
aI6
aI0
aI1
aI2
aI2
aI2
aI1
aI2
aI3
aI1
aI5
aI2
aI2
aI6
aI1
aI1
aI1
aI1
aI3
aI0
aI2
aI2
aI1
aI1
aI3
aI1
aI2
aI2
aI1
aI2
aI3
aI1
aI1
aI1
aI2
aI2
aI2
aI1
aI1
aI3
aI3
aI0
aI1
aI2
aI0
aI5
aI1
aI3
aI0
aI1
aI2
aI3
aI1
aI1
aI9
aI1
aI5
aI4
aI2
aI0
aI1
aI0
aI2
aI1
aI0
aI2
aI2
aI3
aI1
aI1
aI2
aI3
aI0
aI0
aI1
aI0
aI2
aI0
aI2
aI6
aI2
aI1
aI1
aI4
aI1
aI2
aI1
aI1
aI1
aI2
aI1
aI1
aI1
aI2
aI1
aI2
aI2
aI1
aI1
aI0
aI1
aI1
aI0
aI1
aI1
aI1
aI1
aI1
aI1
aI2
aI0
aI2
aI8
aI2
aI2
aI2
aI2
aI3
aI0
aI4
aI1
aI1
aI1
aI1
aI2
aI45
aI1
aI2
aI2
aI2
aI2
aI3
aI5
aI1
aI2
aI2
aI3
aI0
aI1
aI2
aI0
aI1
aI1
aI1
aI1
aI1
aI2
aI2
aI1
aI0
aI0
aI1
aI2
aI1
aI1
aI1
aI2
aI1
aI2
aI10
aI6
aI3
aI1
aI2
aI1
aI2
aI5
aI1
aI1
aI2
aI1
aI0
aI0
aI6
aI1
aI1
aI1
aI3
aI4
aI1
aI0
aI1
aI2
aI1
aI1
aI0
aI1
aI7
aI1
aI6
aI5
aI1
aI1
aI1
aI1
aI1
aI1
aI1
aI1
aI8
aI1
aI0
aI2
aI3
aI2
aI1
aI1
aI18
aI1
aI4
aI2
aI1
aI1
aI2
aI6
aI1
aI1
aI1
aI1
aI2
aI0
aI4
aI2
aI3
aI0
aI3
aI10
aI0
aI0
aI1
aI2
aI1
aI1
aI0
aI1
aI2
aI0
aI2
aI1
aI1
aI6
aI2
aI0
aI5
aI1
aI2
aI1
aI1
aI3
aI1
aI1
aI2
aI0
aI1
aI2
aI0
aI1
aI8
aI2
aI1
aI1
aI2
aI3
aI1
aI1
aI1
aI1
aI1
aI2
aI0
aI1
aI1
aI0
aI1
aI2
aI3
aI3
aI2
aI1
aI0
aI1
aI1
aI1
aI1
aI2
aI1
aI0
aI2
aI5
aI5
aI1
aI1
aI4
aI1
aI1
aI1
aI3
aI1
aI1
aI2
aI0
aI1
aI0
aI1
aI2
aI1
aI0
aI2
aI3
aI1
aI2
aI3
aI1
aI0
aI1
aI2
aI1
aI1
aI4
aI1
aI0
aI2
aI1
aI0
aI2
aI2
aI1
aI1
aI1
aI1
aI2
aI1
aI9
aI3
aI1
aI0
aI2
aI1
aI2
aI1
aI1
aI2
aI4
aI1
aI1
aI0
aI2
aI2
aI1
aI2
aI1
aI1
aI1
aI1
aI4
aI1
aI1
aI2
aI1
aI1
aI1
aI1
aI1
aI4
aI1
aI1
aI2
aI1
aI2
aI2
aI1
aI0
aI4
aI1
aI1
aI1
aI0
aI0
aI1
aI2
aI1
aI1
aI1
aI1
aI1
aI1
aI0
aI3
aI1
aI0
aI1
aI3
aI0
aI1
aI1
aI2
aI1
aI1
aI1
aI2
aI1
aI2
aI2
aI1
aI1
aI1
aI1
aI3
aI1
aI2
aI0
aI1
aI2
aI1
aI1
aI3
aI1
aI2
aI1
aI1
aI1
aI1
aI2
aI0
aI1
aI1
aI0
aI4
aI1
aI1
aI1
aI1
aI2
aI1
aI3
aI1
aI0
aI0
aI3
aI1
aI2
aI1
aI1
aI2
aI11
aI1
aI2
aI8
aI1
aI3
aI1
aI0
aI1
aI1
aI1
aI1
aI2
aI1
aI2
aI1
aI1
aI0
aI1
aI2
aI1
aI1
aI1
aI1
aI2
aI1
aI0
aI1
aI1
aI1
aI1
aI1
aI1
aI2
aI0
aI3
aI2
aI1
aI1
aI4
aI1
aI5
aI1
aI2
aI0
aI1
aI2
aI2
aI1
aI1
aI1
aI1
aI0
aI1
aI17
aI4
aI3
aI1
aI1
aI2
aI2
aI0
aI1
aI1
aI1
aI1
aI1
aI5
aI2
aI3
aI3
aI1
aI1
aI1
aI1
aI2
aI1
aI0
aI2
aI1
aI4
aI3
aI2
aI0
aI1
aI2
aI1
aI3
aI1
aI1
aI1
aI5
aI3
aI2
aI1
aI5
aI2
aI1
aI1
aI2
aI1
aI2
aI0
aI1
aI2
aI1
aI1
aI9
aI1
aI1
aI1
aI1
aI1
aI1
aI0
aI2
aI3
aI1
aI1
aI1
aI1
aI1
aI1
aI1
aI0
aI1
aI2
aI1
aI1
aI2
aI2
aI1
aI1
aI1
aI1
aI1
aI5
aI2
aI1
aI1
aI1
aI1
aI6
aI1
aI0
aI2
aI2
aI3
aI0
aI1
aI1
aI29
aI1
aI1
aI2
aI1
aI8
aI0
aI0
aI1
aI1
aI2
aI2
aI1
aI2
aI1
aI1
aI1
aI10
aI6
aI1
aI1
aI1
aI1
aI1
aI1
aI1
aI1
aI3
aI2
aI0
aI1
aI5
aI1
aI2
aI5
aI1
aI1
aI11
aI1
aI1
aI1
aI1
aI1
aI2
aI12
aI1
aI2
aI0
aI3
aI1
aI1
aI1
aI6
aI6
aI2
aI2
aI1
aI20
aI0
aI2
aI1
aI2
aI2
aI2
aI1
aI1
aI0
aI6
aI2
aI3
aI2
aI1
aI0
aI1
aI0
aI0
aI1
aI0
aI2
aI1
aI3
aI5
aI3
aI0
aI3
aI1
aI3
aI1
aI9
aI1
aI2
aI2
aI1
aI2
aI1
aI2
aI0
aI2
aI1
aI5
aI4
aI0
aI3
aI0
aI1
aI3
aI2
aI2
aI0
aI1
aI1
aI1
aI5
aI1
aI1
aI15
aI3
aI0
aI1
aI3
aI1
aI0
aI10
aI4
aI7
aI1
aI1
aI4
aI3
aI2
aI1
aI1
aI5
aI2
aI1
aI1
aI1
aI1
aI1
aI0
aI5
aI4
aI1
aI2
aI1
aI2
aI1
aI2
aI1
aI0
aI1
aI2
aI0
aI2
aI1
aI2
aI1
aI0
aI1
aI1
aI2
aI1
aI0
aI1
aI5
aI1
aI4
aI2
aI0
aI1
aI1
aI1
aI1
aI1
aI2
aI1
aI1
aI1
aI1
aI2
aI0
aI1
aI3
aI0
aI4
aI1
aI2
aI1
aI1
aI2
aI0
aI2
aI1
aI5
aI2
aI2
aI3
aI1
aI1
aI0
aI2
aI6
aI2
aI2
aI2
aI8
aI2
aI0
aI6
aI1
aI0
aI1
aI2
aI4
aI4
aI1
aI1
aI1
aI2
aI1
aI2
aI1
aI4
aI2
aI1
aI1
aI1
aI2
aI1
aI5
aI8
aI0
aI2
aI1
aI5
aI2
aI3
aI1
aI1
aI3
aI0
aI1
aI1
aI2
aI0
aI2
aI1
aI1
aI1
aI1
aI0
aI1
aI1
aI0
aI3
aI1
aI5
aI1
aI6
aI1
aI2
aI3
aI1
aI1
aI1
aI2
aI0
aI0
aI2
aI1
aI3
aI0
aI1
aI5
aI1
aI1
aI11
aI1
aI0
aI1
aI0
aI2
aI1
aI1
aI2
aI1
aI3
aI1
aI1
aI0
aI1
aI2
aI1
aI1
aI0
aI1
aI0
aI3
aI2
aI1
aI1
aI8
aI0
aI1
aI1
aI1
aI4
aI1
aI1
aI1
aI0
aI1
aI1
aI2
aI5
aI1
aI5
aI1
aI1
aI2
aI2
aI0
aI1
aI1
aI1
aI3
aI1
aI2
aI1
aI90
aI4
aI1
aI0
aI1
aI1
aI1
aI2
aI2
aI1
aI0
aI1
aI1
aI4
aI1
aI1
aI1
aI4
aI2
aI0
aI2
aI1
aI3
aI2
aI1
aI3
aI3
aI1
aI1
aI1
aI0
aI2
aI0
aI0
aI1
aI1
aI2
aI1
aI8
aI1
aI2
aI0
aI1
aI2
aI0
aI1
aI1
aI41
aI0
aI1
aI0
aI1
aI1
aI2
aI1
aI3
aI2
aI4
aI1
aI3
aI1
aI2
aI3
aI2
aI1
aI0
aI0
aI1
aI6
aI2
aI2
aI2
aI1
aI1
aI3
aI2
aI0
aI1
aI4
aI1
aI1
aI2
aI1
aI1
aI2
aI3
aI3
aI1
aI1
aI1
aI1
aI1
aI1
aI3
aI1
aI1
aI2
aI2
aI1
aI3
aI3
aI1
aI2
aI1
aI1
aI3
aI1
aI1
aI1
aI2
aI4
aI1
aI7
aI1
aI2
aI2
aI1
aI1
aI5
aI1
aI2
aI1
aI22
aI0
aI1
aI1
aI2
aI6
aI0
aI1
aI0
aI6
aI1
aI1
aI0
aI5
aI1
aI1
aI0
aI2
aI1
aI1
aI1
aI6
aI1
aI1
aI1
aI0
aI0
aI4
aI1
aI1
aI1
aI2
aI1
aI0
aI2
aI7
aI2
aI2
aI1
aI1
aI1
aI15
aI1
aI1
aI2
aI0
aI2
aI1
aI0
aI1
aI1
aI1
aI1
aI4
aI2
aI1
aI1
aI1
aI2
aI0
aI1
aI1
aI0
aI0
aI3
aI1
aI1
aI1
aI1
aI1
aI2
aI1
aI2
aI6
aI5
aI2
aI1
aI1
aI1
aI3
aI2
aI1
aI0
aI0
aI1
aI2
aI2
aI2
aI2
aI1
aI1
aI4
aI2
aI2
aI1
aI1
aI2
aI0
aI1
aI5
aI0
aI0
aI1
aI2
aI2
aI2
aI0
aI1
aI2
aI10
aI3
aI2
aI1
aI0
aI2
aI1
aI0
aI2
aI2
aI3
aI3
aI2
aI2
aI1
aI1
aI1
aI1
aI1
aI1
aI1
aI1
aI1
aI2
aI3
aI2
aI1
aI1
aI1
aI2
aI1
aI1
aI2
aI1
aI1
aI1
aI2
aI0
aI1
aI1
aI1
aI0
aI1
aI1
aI2
aI2
aI1
aI2
aI2
aI1
aI7
aI3
aI1
aI1
aI1
aI1
aI1
aI1
aI2
aI0
aI4
aI2
aI0
aI1
aI2
aI4
aI1
aI1
aI1
aI2
aI28
aI1
aI0
aI0
aI1
aI1
aI2
aI1
aI1
aI3
aI1
aI2
aI2
aI1
aI1
aI2
aI1
aI2
aI3
aI0
aI3
aI1
aI1
aI0
aI1
aI1
aI3
aI1
aI2
aI1
aI3
aI3
aI1
aI2
aI0
aI1
aI1
aI4
aI4
aI0
aI2
aI1
aI8
aI1
aI1
aI2
aI9
aI2
aI2
aI0
aI1
aI1
aI5
aI1
aI2
aI1
aI1
aI1
aI0
aI1
aI2
aI0
aI1
aI2
aI0
aI1
aI1
aI1
aI1
aI1
aI2
aI1
aI0
aI1
aI0
aI1
aI2
aI1
aI1
aI0
aI6
aI1
aI1
aI1
aI1
aI1
aI13
aI9
aI1
aI1
aI1
aI1
aI18
aI2
aI1
aI2
aI11
aI7
aI1
aI2
aI1
aI4
aI1
aI1
aI4
aI2
aI1
aI1
aI1
aI1
aI2
aI8
aI1
aI2
aI4
aI1
aI1
aI3
aI1
aI0
aI0
aI1
aI1
aI2
aI2
aI2
aI1
aI1
aI2
aI1
aI1
aI0
aI1
aI7
aI0
aI1
aI1
aI2
aI1
aI1
aI3
aI2
aI1
aI2
aI0
aI3
aI2
aI4
aI2
aI1
aI1
aI2
aI1
aI1
aI1
aI4
aI1
aI1
aI1
aI1
aI1
aI1
aI8
aI1
aI2
aI1
aI2
aI1
aI1
aI1
aI2
aI3
aI0
aI1
aI1
aI2
aI0
aI1
aI1
aI4
aI2
aI1
aI1
aI3
aI2
aI1
aI1
aI1
aI1
aI1
aI1
aI1
aI1
aI1
aI5
aI2
aI1
aI2
aI0
aI1
aI1
aI0
aI1
aI2
aI13
aI1
aI3
aI3
aI1
aI2
aI1
aI1
aI1
aI2
aI1
aI1
aI1
aI1
aI1
aI1
aI2
aI2
aI0
aI2
aI3
aI0
aI3
aI1
aI0
aI1
aI3
aI1
aI1
aI2
aI3
aI1
aI1
aI2
aI1
aI1
aI1
aI2
aI2
aI2
aI2
aI1
aI0
aI0
aI1
aI12
aI1
aI1
aI2
aI2
aI2
aI1
aI4
aI2
aI1
aI1
aI4
aI1
aI1
aI0
aI0
aI1
aI1
aI1
aI0
aI15
aI1
aI1
aI2
aI1
aI2
aI1
aI7
aI2
aI3
aI1
aI0
aI5
aI2
aI1
aI1
aI1
aI2
aI1
aI1
aI0
aI2
aI2
aI3
aI0
aI0
aI0
aI1
aI1
aI2
aI3
aI1
aI1
aI3
aI3
aI1
aI3
aI1
aI1
aI2
aI1
aI3
aI4
aI1
aI2
aI1
aI1
aI0
aI2
aI1
aI3
aI2
aI2
aI2
aI2
aI1
aI0
aI1
aI6
aI1
aI0
aI6
aI2
aI1
aI1
aI1
aI4
aI3
aI1
aI2
aI1
aI0
aI1
aI2
aI1
aI1
aI1
aI2
aI1
aI2
aI1
aI1
aI0
aI2
aI2
aI1
aI1
aI3
aI2
aI3
aI1
aI2
aI1
aI2
aI5
aI0
aI1
aI3
aI3
aI1
aI2
aI1
aI1
aI1
aI1
aI1
aI1
aI2
aI2
aI1
aI1
aI1
aI1
aI2
aI2
aI1
aI1
aI0
aI2
aI2
aI0
aI1
aI2
aI1
aI7
aI0
aI3
aI0
aI2
aI1
aI2
aI2
aI4
aI1
aI1
aI1
aI3
aI0
aI2
aI2
aI1
aI0
aI1
aI1
aI0
aI4
aI2
aI0
aI0
aI1
aI2
aI2
aI1
aI1
aI2
aI1
aI1
aI2
aI1
aI6
aI3
aI1
aI1
aI1
aI2
aI0
aI3
aI3
aI1
aI2
aI3
aI1
aI3
aI1
aI1
aI0
aI1
aI2
aI3
aI3
aI1
aI2
aI1
aI1
aI1
aI3
aI4
aI0
aI12
aI1
aI1
aI1
aI0
aI1
aI2
aI0
aI1
aI1
aI3
aI1
aI1
aI1
aI1
aI1
aI0
aI1
aI1
aI5
aI1
aI17
aI1
aI2
aI1
aI1
aI1
aI2
aI1
aI2
aI2
aI1
aI17
aI0
aI1
aI2
aI6
aI1
aI3
aI3
aI4
aI1
aI1
aI0
aI1
aI2
aI3
aI2
aI3
aI1
aI1
aI2
aI0
aI1
aI1
aI1
aI1
aI1
aI1
aI0
aI3
aI0
aI1
aI1
aI1
aI1
aI5
aI1
aI1
aI2
aI1
aI1
aI12
aI1
aI0
aI1
aI1
aI3
aI1
aI2
aI1
aI3
aI2
aI1
aI3
aI1
aI3
aI1
aI7
aI2
aI5
aI2
aI1
aI2
aI2
aI1
aI1
aI1
aI1
aI1
aI1
aI1
aI11
aI2
aI1
aI6
aI2
aI2
aI1
aI0
aI0
aI1
aI0
aI1
aI2
aI2
aI2
aI2
aI2
aI3
aI3
aI3
aI1
aI2
aI2
aI2
aI0
aI2
aI4
aI2
aI2
aI3
aI4
aI2
aI3
aI1
aI1
aI2
aI1
aI1
aI1
aI2
aI1
aI2
aI1
aI1
aI1
aI1
aI1
aI2
aI2
aI1
aI3
aI2
aI1
aI5
aI1
aI2
aI4
aI4
aI2
aI3
aI2
aI2
aI10
aI1
aI2
aI2
aI1
aI1
aI1
aI1
aI2
aI1
aI1
aI1
aI2
aI0
aI2
aI2
aI1
aI2
aI0
aI2
aI1
aI0
aI0
aI2
aI1
aI1
aI1
aI1
aI10
aI1
aI1
aI0
aI1
aI2
aI1
aI1
aI1
aI1
aI1
aI1
aI1
aI1
aI1
aI7
aI2
aI2
aI3
aI2
aI1
aI2
aI2
aI1
aI1
aI2
aI3
aI1
aI1
aI0
aI1
aI1
aI3
aI2
aI1
aI1
aI1
aI2
aI3
aI6
aI3
aI8
aI0
aI1
aI2
aI3
aI0
aI1
aI4
aI1
aI1
aI2
aI2
aI6
aI1
aI1
aI1
aI2
aI2
aI8
aI2
aI12
aI2
aI2
aI1
aI2
aI1
aI1
aI1
aI3
aI1
aI1
aI3
aI2
aI1
aI2
aI1
aI0
aI1
aI0
aI0
aI1
aI1
aI1
aI1
aI0
aI1
aI1
aI3
aI2
aI2
aI1
aI3
aI1
aI2
aI6
aI1
aI1
aI1
aI1
aI4
aI2
aI5
aI1
aI3
aI1
aI0
aI0
aI1
aI4
aI2
aI2
aI1
aI1
aI1
aI0
aI3
aI1
aI1
aI1
aI3
aI1
aI2
aI0
aI2
aI2
aI2
aI2
aI0
aI0
aI1
aI2
aI1
aI3
aI0
aI1
aI8
aI3
aI3
aI1
aI1
aI3
aI3
aI3
aI1
aI1
aI4
aI2
aI2
aI2
aI1
aI2
aI0
aI3
aI1
aI3
aI1
aI0
aI1
aI3
aI1
aI2
aI1
aI2
aI1
aI1
aI1
aI2
aI1
aI12
aI2
aI4
aI1
aI1
aI1
aI2
aI1
aI1
aI1
aI1
aI1
aI0
aI1
aI2
aI0
aI3
aI2
aI1
aI1
aI1
aI1
aI2
aI2
aI2
aI6
aI1
aI1
aI3
aI2
aI1
aI2
aI2
aI2
aI2
aI1
aI1
aI11
aI1
aI1
aI1
aI2
aI1
aI1
aI3
aI1
aI1
aI2
aI1
aI1
aI1
aI2
aI1
aI7
aI3
aI3
aI0
aI4
aI3
aI4
aI2
aI0
aI0
aI1
aI0
aI1
aI1
aI3
aI1
aI3
aI1
aI1
aI1
aI3
aI0
aI1
aI1
aI9
aI4
aI1
aI1
aI11
aI1
aI0
aI1
aI2
aI1
aI2
aI1
aI1
aI1
aI6
aI4
aI4
aI0
aI1
aI1
aI0
aI1
aI1
aI1
aI1
aI2
aI1
aI1
aI2
aI6
aI3
aI3
aI1
aI2
aI1
aI1
aI1
aI8
aI1
aI8
aI3
aI1
aI1
aI0
aI2
aI2
aI5
aI1
aI0
aI0
aI1
aI2
aI2
aI2
aI7
aI2
aI2
aI1
aI2
aI1
aI1
aI1
aI0
aI2
aI1
aI2
aI0
aI3
aI3
aI1
aI1
aI1
aI6
aI1
aI2
aI1
aI2
aI1
aI3
aI14
aI1
aI5
aI0
aI1
aI1
aI2
aI10
aI1
aI2
aI9
aI1
aI2
aI1
aI1
aI1
aI2
aI1
aI2
aI2
aI1
aI2
aI3
aI1
aI1
aI1
aI1
aI0
aI2
aI0
aI1
aI1
aI2
aI2
aI1
aI2
aI4
aI3
aI2
aI0
aI1
aI1
aI3
aI0
aI1
aI2
aI1
aI2
aI1
aI2
aI1
aI2
aI2
aI1
aI2
aI4
aI3
aI4
aI2
aI0
aI6
aI5
aI0
aI1
aI1
aI1
aI0
aI2
aI2
aI1
aI1
aI4
aI1
aI18
aI2
aI3
aI2
aI2
aI2
aI1
aI1
aI5
aI1
aI10
aI1
aI2
aI2
aI1
aI6
aI1
aI2
aI1
aI0
aI1
aI2
aI1
aI2
aI7
aI2
aI0
aI2
aI1
aI3
aI1
aI1
aI1
aI1
aI3
aI1
aI1
aI1
aI1
aI1
aI1
aI3
aI1
aI1
aI2
aI1
aI1
aI2
aI2
aI3
aI3
aI3
aI6
aI1
aI1
aI1
aI1
aI1
aI0
aI1
aI0
aI1
aI1
aI0
aI3
aI0
aI1
aI3
aI3
aI2
aI1
aI2
aI1
aI4
aI1
aI1
aI2
aI1
aI2
aI4
aI2
aI0
aI6
aI2
aI1
aI1
aI1
aI1
aI1
aI1
aI1
aI2
aI0
aI1
aI0
aI19
aI1
aI3
aI1
aI1
aI6
aI2
aI2
aI1
aI1
aI1
aI1
aI2
aI1
aI1
aI1
aI2
aI1
aI1
aI3
aI1
aI1
aI1
aI0
aI5
aI0
aI5
aI1
aI0
aI0
aI2
aI1
aI4
aI1
aI0
aI1
aI1
aI2
aI1
aI2
aI3
aI2
aI0
aI4
aI1
aI0
aI1
aI1
aI2
aI2
aI2
aI1
aI2
aI1
aI2
aI1
aI0
aI0
aI8
aI2
aI2
aI1
aI2
aI7
aI2
aI0
aI1
aI1
aI1
aI2
aI3
aI1
aI2
aI2
aI1
aI1
aI0
aI1
aI0
aI1
aI4
aI0
aI1
aI0
aI2
aI0
aI1
aI2
aI1
aI1
aI3
aI1
aI1
aI4
aI1
aI1
aI2
aI1
aI1
aI0
aI1
aI1
aI5
aI1
aI1
aI1
aI1
aI2
aI4
aI0
aI3
aI1
aI1
aI4
aI1
aI2
aI2
aI1
aI1
aI1
aI4
aI5
aI5
aI3
aI2
aI2
aI1
aI1
aI1
aI4
aI23
aI1
aI7
aI1
aI2
aI1
aI1
aI0
aI1
aI3
aI2
aI2
aI1
aI1
aI5
aI8
aI1
aI3
aI1
aI2
aI1
aI2
aI1
aI1
aI1
aI1
aI2
aI0
aI1
aI0
aI1
aI1
aI1
aI1
aI2
aI2
aI1
aI2
aI0
aI10
aI1
aI2
aI3
aI1
aI1
aI1
aI0
aI3
aI8
aI1
aI1
aI1
aI1
aI0
aI2
aI2
aI1
aI0
aI1
aI1
aI1
aI0
aI3
aI1
aI0
aI0
aI3
aI1
aI2
aI1
aI2
aI2
aI1
aI0
aI1
aI1
aI1
aI1
aI1
aI3
aI4
aI1
aI1
aI5
aI2
aI1
aI2
aI2
aI4
aI2
aI1
aI2
aI4
aI1
aI6
aI1
aI2
aI3
aI2
aI1
aI0
aI38
aI0
aI1
aI1
aI13
aI3
aI1
aI1
aI5
aI3
aI2
aI1
aI1
aI2
aI1
aI1
aI1
aI3
aI1
aI2
aI3
aI2
aI0
aI1
aI0
aI2
aI2
aI1
aI2
aI2
aI1
aI1
aI2
aI0
aI1
aI2
aI1
aI2
aI5
aI2
aI2
aI1
aI1
aI1
aI0
aI1
aI1
aI11
aI4
aI2
aI1
aI4
aI2
aI2
aI1
aI1
aI2
aI1
aI1
aI2
aI1
aI5
aI1
aI1
aI0
aI1
aI0
aI2
aI2
aI2
aI0
aI1
aI0
aI0
aI1
aI1
aI1
aI1
aI2
aI1
aI1
aI1
aI3
aI2
aI1
aI1
aI0
aI1
aI2
aI1
aI1
aI1
aI1
aI1
aI12
aI2
aI2
aI4
aI2
aI2
aI1
aI1
aI0
aI0
aI1
aI3
aI2
aI1
aI4
aI1
aI1
aI4
aI1
aI1
aI1
aI1
aI1
aI2
aI2
aI1
aI1
aI5
aI1
aI2
aI1
aI1
aI1
aI2
aI1
aI4
aI0
aI1
aI2
aI0
aI1
aI0
aI1
aI0
aI2
aI4
aI2
aI3
aI4
aI1
aI2
aI2
aI2
aI2
aI2
aI2
aI1
aI2
aI1
aI0
aI1
aI1
aI1
aI1
aI2
aI0
aI1
aI0
aI18
aI2
aI1
aI0
aI0
aI0
aI3
aI1
aI1
aI1
aI1
aI1
aI0
aI1
aI1
aI4
aI1
aI1
aI0
aI1
aI2
aI2
aI3
aI1
aI6
aI2
aI1
aI1
aI0
aI1
aI0
aI4
aI1
aI3
aI1
aI1
aI0
aI1
aI3
aI1
aI3
aI1
aI0
aI1
aI3
aI1
aI1
aI1
aI1
aI1
aI1
aI1
aI1
aI2
aI4
aI1
aI5
aI2
aI2
aI2
aI2
aI2
aI0
aI2
aI0
aI2
aI1
aI1
aI0
aI2
aI2
aI1
aI0
aI1
aI0
aI1
aI5
aI1
aI1
aI1
aI4
aI3
aI3
aI2
aI1
aI0
aI1
aI1
aI4
aI9
aI1
aI5
aI6
aI1
aI3
aI1
aI2
aI1
aI0
aI1
aI1
aI1
aI2
aI1
aI7
aI2
aI1
aI1
aI0
aI2
aI1
aI1
aI1
aI1
aI1
aI1
aI1
aI1
aI1
aI1
aI1
aI1
aI4
aI2
aI2
aI0
aI13
aI0
aI2
aI1
aI1
aI1
aI0
aI0
aI2
aI2
aI2
aI2
aI0
aI6
aI0
aI1
aI19
aI1
aI1
aI2
aI2
aI4
aI2
aI2
aI0
aI6
aI2
aI0
aI2
aI1
aI3
aI1
aI1
aI2
aI3
aI1
aI11
aI1
aI4
aI1
aI3
aI2
aI1
aI1
aI0
aI1
aI3
aI1
aI1
aI3
aI1
aI3
aI1
aI1
aI1
aI0
aI1
aI1
aI1
aI2
aI2
aI1
aI1
aI1
aI2
aI1
aI2
aI1
aI1
aI2
aI0
aI2
aI2
aI1
aI7
aI0
aI0
aI1
aI0
aI2
aI6
aI2
aI1
aI2
aI1
aI1
aI2
aI1
aI1
aI2
aI1
aI1
aI1
aI1
aI0
aI0
aI0
aI1
aI1
aI2
aI1
aI1
aI3
aI1
aI1
aI2
aI1
aI6
aI2
aI0
aI2
aI1
aI0
aI5
aI3
aI1
aI2
aI0
aI1
aI2
aI6
aI2
aI1
aI2
aI2
aI1
aI4
aI1
aI2
aI1
aI1
aI1
aI1
aI1
aI1
aI1
aI1
aI1
aI1
aI2
aI3
aI1
aI1
aI4
aI6
aI0
aI0
aI3
aI1
aI1
aI2
aI2
aI1
aI3
aI1
aI0
aI1
aI0
aI2
aI2
aI0
aI1
aI1
aI8
aI1
aI2
aI0
aI1
aI1
aI1
aI2
aI2
aI1
aI2
aI1
aI1
aI2
aI1
aI1
aI2
aI2
aI1
aI1
aI1
aI2
aI9
aI1
aI1
aI1
aI2
aI1
aI10
aI2
aI1
aI2
aI15
aI2
aI3
aI1
aI1
aI1
aI1
aI3
aI1
aI1
aI2
aI1
aI2
aI1
aI3
aI1
aI1
aI1
aI1
aI7
aI1
aI1
aI1
aI0
aI1
aI1
aI1
aI1
aI4
aI2
aI1
aI1
aI1
aI1
aI3
aI1
aI1
aI1
aI1
aI0
aI1
aI1
aI3
aI2
aI1
aI1
aI3
aI1
aI3
aI4
aI2
aI2
aI1
aI7
aI1
aI2
aI4
aI2
aI2
aI0
aI1
aI2
aI19
aI1
aI1
aI4
aI1
aI1
aI0
aI1
aI0
aI2
aI0
aI1
aI3
aI1
aI3
aI2
aI0
aI9
aI1
aI11
aI2
aI1
aI1
aI2
aI2
aI1
aI1
aI2
aI0
aI2
aI5
aI6
aI0
aI3
aI1
aI1
aI2
aI2
aI1
aI5
aI2
aI1
aI1
aI9
aI1
aI0
aI2
aI2
aI1
aI1
aI1
aI1
aI1
aI1
aI1
aI1
aI0
aI1
aI1
aI4
aI1
aI1
aI0
aI1
aI1
aI1
aI0
aI0
aI0
aI1
aI0
aI1
aI1
aI1
aI2
aI2
aI0
aI2
aI2
aI1
aI1
aI1
aI2
aI1
aI4
aI2
aI1
aI1
aI3
aI1
aI2
aI1
aI2
aI1
aI1
aI1
aI0
aI2
aI2
aI3
aI1
aI1
aI2
aI2
aI1
aI1
aI1
aI1
aI1
aI1
aI1
aI0
aI1
aI1
aI3
aI2
aI1
aI1
aI1
aI0
aI2
aI0
aI6
aI5
aI11
aI1
aI1
aI2
aI1
aI1
aI2
aI0
aI1
aI1
aI0
aI1
aI2
aI1
aI1
aI0
aI1
aI3
aI1
aI0
aI2
aI1
aI2
aI1
aI0
aI1
aI1
aI1
aI4
aI1
aI1
aI1
aI3
aI1
aI1
aI1
aI1
aI2
aI2
aI0
aI1
aI1
aI2
aI6
aI2
aI4
aI7
aI1
aI0
aI1
aI1
aI2
aI1
aI0
aI2
aI0
aI1
aI1
aI1
aI1
aI7
aI1
aI2
aI4
aI0
aI4
aI5
aI6
aI1
aI3
aI2
aI1
aI2
aI1
aI1
aI0
aI2
aI1
aI1
aI2
aI2
aI0
aI1
aI2
aI1
aI1
aI3
aI2
aI1
aI1
aI1
aI1
aI2
aI1
aI1
aI1
aI1
aI1
aI1
aI1
aI1
aI1
aI2
aI1
aI1
aI0
aI1
aI0
aI2
aI15
aI2
aI6
aI1
aI1
aI2
aI1
aI0
aI1
aI2
aI1
aI4
aI2
aI2
aI5
aI0
aI1
aI3
aI1
aI1
aI1
aI1
aI2
aI2
aI1
aI6
aI3
aI1
aI1
aI1
aI0
aI3
aI2
aI0
aI1
aI1
aI3
aI2
aI1
aI0
aI1
aI2
aI2
aI2
aI1
aI4
aI1
aI1
aI2
aI4
aI1
aI0
aI1
aI2
aI1
aI0
aI0
aI2
aI1
aI2
aI0
aI1
aI2
aI5
aI3
aI1
aI1
aI2
aI4
aI2
aI1
aI0
aI3
aI2
aI6
aI1
aI2
aI1
aI3
aI1
aI0
aI3
aI1
aI1
aI1
aI2
aI1
aI1
aI0
aI2
aI1
aI3
aI1
aI2
aI0
aI1
aI2
aI1
aI2
aI1
aI4
aI1
aI1
aI0
aI1
aI1
aI1
aI1
aI1
aI1
aI1
aI1
aI1
aI2
aI2
aI0
aI3
aI2
aI1
aI1
aI0
aI1
aI2
aI1
aI1
aI1
aI2
aI0
aI12
aI2
aI1
aI1
aI1
aI1
aI1
aI6
aI1
aI0
aI0
aI1
aI2
aI1
aI1
aI1
aI1
aI2
aI3
aI1
aI1
aI1
aI3
aI1
aI1
aI3
aI2
aI1
aI1
aI4
aI1
aI2
aI1
aI1
aI3
aI1
aI2
aI1
aI6
aI1
aI1
aI1
aI1
aI12
aI1
aI0
aI1
aI1
aI1
aI1
aI1
aI1
aI5
aI1
aI2
aI2
aI2
aI1
aI1
aI1
aI20
aI1
aI1
aI1
aI1
aI1
aI0
aI2
aI2
aI3
aI3
aI1
aI1
aI1
aI2
aI2
aI1
aI1
aI1
aI0
aI0
aI1
aI1
aI1
aI1
aI1
aI8
aI1
aI0
aI2
aI1
aI1
aI0
aI3
aI1
aI10
aI2
aI1
aI2
aI1
aI1
aI1
aI1
aI1
aI1
aI1
aI0
aI1
aI1
aI1
aI1
aI3
aI2
aI1
aI8
aI3
aI3
aI2
aI0
aI1
aI1
aI2
aI4
aI1
aI1
aI2
aI1
aI0
aI1
aI1
aI0
aI6
aI2
aI0
aI1
aI1
aI3
aI3
aI5
aI1
aI2
aI1
aI1
aI10
aI1
aI1
aI1
aI0
aI4
aI0
aI0
aI2
aI1
aI1
aI2
aI1
aI6
aI2
aI0
aI1
aI1
aI2
aI2
aI1
aI2
aI4
aI2
aI1
aI0
aI3
aI1
aI1
aI2
aI1
aI1
aI3
aI1
aI2
aI1
aI3
aI2
aI2
aI1
aI2
aI1
aI1
aI1
aI1
aI2
aI1
aI3
aI1
aI1
aI1
aI1
aI4
aI2
aI1
aI0
aI1
aI2
aI2
aI2
aI1
aI1
aI2
aI2
aI4
aI2
aI2
aI1
aI32
aI1
aI1
aI1
aI3
aI1
aI6
aI1
aI0
aI1
aI0
aI1
aI1
aI0
aI1
aI0
aI5
aI1
aI1
aI1
aI1
aI1
aI0
aI0
aI1
aI4
aI2
aI2
aI1
aI19
aI5
aI2
aI2
aI0
aI0
aI0
aI0
aI1
aI2
aI4
aI1
aI2
aI3
aI1
aI1
aI3
aI1
aI2
aI1
aI0
aI0
aI5
aI1
aI1
aI1
aI1
aI1
aI1
aI1
aI6
aI2
aI2
aI1
aI0
aI1
aI1
aI0
aI1
aI1
aI2
aI2
aI1
aI2
aI1
aI4
aI1
aI2
aI2
aI1
aI0
aI0
aI0
aI0
aI0
aI3
aI1
aI1
aI2
aI4
aI1
aI1
aI2
aI0
aI2
aI1
aI4
aI1
aI1
aI2
aI1
aI1
aI1
aI0
aI2
aI1
aI4
aI1
aI0
aI1
aI0
aI2
aI1
aI1
aI1
aI1
aI1
aI2
aI2
aI1
aI1
aI7
aI1
aI2
aI1
aI0
aI1
aI1
aI2
aI2
aI0
aI1
aI1
aI0
aI2
aI2
aI1
aI2
aI3
aI0
aI0
aI1
aI2
aI1
aI6
aI1
aI2
aI2
aI1
aI1
aI5
aI1
aI3
aI1
aI1
aI1
aI0
aI1
aI3
aI0
aI0
aI0
aI1
aI2
aI1
aI0
aI1
aI2
aI1
aI5
aI0
aI6
aI2
aI1
aI0
aI1
aI3
aI1
aI3
aI1
aI2
aI1
aI0
aI0
aI3
aI2
aI2
aI1
aI1
aI2
aI1
aI2
aI1
aI0
aI1
aI0
aI2
aI1
aI0
aI1
aI1
aI4
aI7
aI2
aI1
aI2
aI1
aI1
aI1
aI1
aI1
aI0
aI1
aI0
aI1
aI5
aI0
aI4
aI0
aI1
aI1
aI1
aI1
aI1
aI0
aI0
aI1
aI3
aI3
aI1
aI0
aI1
aI9
aI2
aI2
aI5
aI1
aI1
aI1
aI1
aI1
aI1
aI1
aI1
aI1
aI1
aI1
aI1
aI2
aI1
aI2
aI1
aI18
aI1
aI1
aI4
aI1
aI4
aI3
aI2
aI0
aI2
aI0
aI1
aI2
aI0
aI1
aI2
aI0
aI11
aI1
aI0
aI0
aI1
aI2
aI1
aI5
aI1
aI3
aI2
aI1
aI2
aI1
aI1
aI3
aI3
aI0
aI2
aI2
aI10
aI1
aI1
aI1
aI1
aI2
aI1
aI1
aI1
aI1
aI0
aI1
aI2
aI2
aI1
aI0
aI2
aI1
aI1
aI1
aI0
aI1
aI1
aI2
aI1
aI1
aI2
aI3
aI1
aI0
aI3
aI1
aI1
aI1
aI0
aI2
aI1
aI3
aI2
aI2
aI1
aI1
aI8
aI1
aI1
aI1
aI1
aI5
aI1
aI1
aI2
aI1
aI1
aI1
aI1
aI0
aI1
aI0
aI1
aI1
aI1
aI1
aI1
aI1
aI4
aI9
aI0
aI4
aI0
aI1
aI1
aI3
aI2
aI1
aI0
aI2
aI4
aI0
aI2
aI1
aI1
aI2
aI1
aI2
aI1
aI3
aI3
aI2
aI0
aI2
aI1
aI1
aI1
aI0
aI1
aI1
aI6
aI0
aI1
aI2
aI2
aI5
aI2
aI26
aI1
aI1
aI1
aI1
aI1
aI1
aI1
aI0
aI0
aI2
aI1
aI3
aI2
aI1
aI7
aI5
aI1
aI1
aI2
aI1
aI0
aI1
aI30
aI0
aI2
aI1
aI1
aI8
aI1
aI1
aI2
aI2
aI1
aI2
aI0
aI1
aI2
aI3
aI1
aI2
aI2
aI1
aI1
aI1
aI1
aI7
aI2
aI1
aI1
aI0
aI0
aI2
aI0
aI1
aI1
aI0
aI0
aI1
aI2
aI2
aI2
aI0
aI1
aI1
aI1
aI1
aI1
aI1
aI5
aI4
aI2
aI1
aI1
aI0
aI1
aI4
aI1
aI1
aI1
aI2
aI1
aI0
aI4
aI2
aI1
aI2
aI1
aI0
aI1
aI0
aI1
aI1
aI0
aI10
aI2
aI4
aI1
aI0
aI2
aI2
aI2
aI2
aI3
aI1
aI1
aI1
aI1
aI1
aI2
aI2
aI0
aI1
aI1
aI1
aI1
aI1
aI1
aI1
aI1
aI0
aI2
aI0
aI1
aI0
aI4
aI1
aI0
aI0
aI1
aI2
aI0
aI1
aI2
aI0
aI3
aI1
aI4
aI1
aI0
aI3
aI2
aI1
aI0
aI1
aI3
aI0
aI2
aI0
aI2
aI1
aI2
aI1
aI1
aI1
aI2
aI4
aI0
aI4
aI2
aI0
aI1
aI1
aI1
aI1
aI1
aI1
aI3
aI0
aI1
aI1
aI1
aI1
aI1
aI1
aI1
aI1
aI1
aI1
aI3
aI6
aI4
aI29
aI2
aI1
aI1
aI2
aI1
aI16
aI0
aI1
aI1
aI1
aI1
aI1
aI2
aI1
aI1
aI4
aI2
aI1
aI1
aI2
aI3
aI1
aI1
aI1
aI1
aI1
aI1
aI3
aI0
aI1
aI2
aI0
aI16
aI1
aI1
aI0
aI1
aI1
aI11
aI1
aI1
aI1
aI2
aI1
aI3
aI1
aI3
aI1
aI2
aI1
aI1
aI2
aI2
aI4
aI1
aI11
aI5
aI3
aI2
aI1
aI0
aI1
aI1
aI1
aI4
aI2
aI2
aI2
aI0
aI3
aI0
aI1
aI1
aI1
aI1
aI2
aI1
aI0
aI1
aI0
aI2
aI2
aI5
aI2
aI2
aI1
aI1
aI1
aI1
aI1
aI2
aI1
aI1
aI1
aI0
aI3
aI1
aI1
aI1
aI1
aI1
aI1
aI1
aI1
aI1
aI0
aI6
aI4
aI0
aI1
aI1
aI1
aI2
aI1
aI2
aI2
aI0
aI1
aI1
aI1
aI2
aI5
aI3
aI2
aI1
aI0
aI1
aI1
aI1
aI1
aI3
aI3
aI1
aI2
aI3
aI0
aI1
aI2
aI2
aI1
aI1
aI5
aI3
aI1
aI2
aI1
aI2
aI1
aI2
aI1
aI1
aI1
aI1
aI1
aI2
aI2
aI2
aI3
aI2
aI5
aI2
aI1
aI2
aI1
aI8
aI2
aI2
aI2
aI1
aI1
aI1
aI1
aI0
aI2
aI2
aI1
aI5
aI2
aI2
aI5
aI1
aI1
aI4
aI3
aI1
aI2
aI1
aI0
aI1
aI2
aI2
aI1
aI1
aI1
aI1
aI0
aI1
aI3
aI2
aI4
aI4
aI2
aI2
aI1
aI1
aI1
aI0
aI2
aI2
aI11
aI0
aI0
aI0
aI1
aI4
aI7
aI1
aI2
aI1
aI2
aI5
aI0
aI1
aI0
aI0
aI1
aI3
aI1
aI2
aI1
aI1
aI1
aI1
aI8
aI1
aI2
aI1
aI1
aI4
aI1
aI1
aI5
aI1
aI0
aI1
aI2
aI4
aI3
aI1
aI2
aI2
aI3
aI1
aI2
aI1
aI0
aI2
aI2
aI2
aI2
aI2
aI2
aI4
aI2
aI2
aI1
aI1
aI2
aI5
aI5
aI4
aI1
aI2
aI2
aI2
aI0
aI1
aI1
aI0
aI2
aI5
aI0
aI17
aI1
aI1
aI1
aI4
aI2
aI0
aI1
aI1
aI26
aI1
aI5
aI2
aI6
aI3
aI0
aI1
aI1
aI1
aI1
aI6
aI1
aI2
aI11
aI2
aI6
aI8
aI1
aI1
aI15
aI0
aI0
aI1
aI1
aI1
aI2
aI2
aI1
aI15
aI0
aI1
aI1
aI0
aI2
aI2
aI1
aI1
aI1
aI1
aI1
aI3
aI1
aI1
aI1
aI3
aI3
aI1
aI1
aI1
aI1
aI0
aI1
aI3
aI2
aI0
aI1
aI1
aI1
aI1
aI2
aI0
aI4
aI2
aI1
aI1
aI2
aI2
aI1
aI1
aI1
aI1
aI2
aI0
aI2
aI3
aI2
aI1
aI30
aI1
aI6
aI1
aI3
aI3
aI0
aI1
aI2
aI3
aI0
aI3
aI2
aI2
aI1
aI0
aI3
aI4
aI0
aI0
aI0
aI1
aI0
aI4
aI0
aI2
aI1
aI1
aI16
aI1
aI3
aI4
aI1
aI1
aI1
aI2
aI1
aI2
aI2
aI1
aI3
aI1
aI2
aI2
aI2
aI7
aI1
aI2
aI2
aI1
aI1
aI1
aI2
aI1
aI1
aI0
aI1
aI1
aI1
aI1
aI1
aI3
aI1
aI1
aI0
aI1
aI1
aI0
aI2
aI1
aI1
aI11
aI3
aI2
aI1
aI0
aI8
aI1
aI1
aI3
aI1
aI18
aI1
aI1
aI5
aI1
aI1
aI17
aI2
aI1
aI3
aI1
aI1
aI2
aI1
aI1
aI1
aI3
aI4
aI1
aI1
aI1
aI1
aI1
aI0
aI1
aI2
aI3
aI3
aI2
aI1
aI3
aI1
aI3
aI2
aI7
aI1
aI1
aI34
aI2
aI1
aI0
aI1
aI8
aI3
aI1
aI1
aI1
aI1
aI1
aI3
aI2
aI4
aI1
aI3
aI2
aI0
aI2
aI1
aI3
aI1
aI1
aI2
aI0
aI4
aI5
aI0
aI1
aI1
aI1
aI1
aI0
aI0
aI2
aI37
aI1
aI4
aI3
aI1
aI3
aI1
aI0
aI1
aI8
aI0
aI1
aI1
aI3
aI5
aI1
aI1
aI2
aI0
aI4
aI1
aI2
aI1
aI2
aI1
aI1
aI2
aI21
aI1
aI2
aI1
aI1
aI2
aI1
aI2
aI1
aI3
aI1
aI2
aI2
aI3
aI1
aI1
aI3
aI2
aI1
aI5
aI1
aI2
aI0
aI3
aI1
aI2
aI6
aI6
aI2
aI1
aI0
aI0
aI2
aI15
aI0
aI0
aI19
aI1
aI1
aI2
aI5
aI1
aI3
aI1
aI1
aI1
aI1
aI2
aI1
aI1
aI1
aI1
aI1
aI0
aI2
aI1
aI1
aI8
aI1
aI2
aI0
aI1
aI2
aI1
aI1
aI2
aI3
aI3
aI1
aI1
aI1
aI0
aI1
aI1
aI1
aI1
aI2
aI1
aI2
aI1
aI0
aI2
aI3
aI2
aI2
aI1
aI2
aI2
aI1
aI5
aI2
aI2
aI2
aI1
aI3
aI1
aI2
aI4
aI1
aI1
aI4
aI1
aI1
aI8
aI2
aI8
aI1
aI3
aI0
aI1
aI1
aI2
aI1
aI4
aI1
aI0
aI1
aI0
aI1
aI3
aI1
aI1
aI1
aI8
aI4
aI1
aI1
aI1
aI3
aI1
aI1
aI1
aI0
aI4
aI1
aI1
aI1
aI1
aI1
aI1
aI4
aI3
aI2
aI1
aI1
aI2
aI1
aI1
aI0
aI1
aI0
aI1
aI0
aI1
aI1
aI1
aI1
aI1
aI2
aI1
aI0
aI1
aI1
aI2
aI1
aI5
aI1
aI2
aI0
aI2
aI2
aI3
aI0
aI1
aI1
aI1
aI1
aI3
aI1
aI1
aI0
aI4
aI1
aI2
aI1
aI1
aI2
aI1
aI1
aI1
aI3
aI2
aI1
aI1
aI1
aI3
aI2
aI4
aI1
aI0
aI1
aI2
aI2
aI2
aI1
aI1
aI2
aI2
aI2
aI3
aI5
aI1
aI3
aI4
aI1
aI1
aI1
aI2
aI7
aI3
aI1
aI2
aI1
aI3
aI2
aI1
aI1
aI2
aI1
aI12
aI3
aI1
aI0
aI2
aI1
aI1
aI7
aI3
aI2
aI1
aI1
aI1
aI1
aI2
aI1
aI1
aI3
aI3
aI1
aI1
aI1
aI2
aI2
aI2
aI2
aI0
aI1
aI3
aI2
aI1
aI1
aI1
aI1
aI1
aI3
aI1
aI3
aI0
aI1
aI3
aI15
aI1
aI1
aI2
aI1
aI0
aI1
aI2
aI1
aI2
aI1
aI1
aI1
aI0
aI1
aI7
aI3
aI1
aI2
aI1
aI2
aI2
aI1
aI1
aI1
aI3
aI2
aI0
aI1
aI1
aI4
aI2
aI0
aI9
aI0
aI1
aI2
aI1
aI4
aI4
aI1
aI1
aI1
aI1
aI1
aI1
aI2
aI2
aI1
aI5
aI1
aI1
aI6
aI1
aI0
aI1
aI1
aI2
aI1
aI1
aI1
aI18
aI1
aI1
aI2
aI1
aI2
aI3
aI3
aI3
aI1
aI1
aI1
aI1
aI1
aI1
aI1
aI7
aI0
aI6
aI6
aI1
aI0
aI1
aI1
aI3
aI1
aI0
aI0
aI0
aI1
aI1
aI2
aI1
aI1
aI3
aI1
aI3
aI1
aI1
aI2
aI0
aI1
aI0
aI1
aI1
aI7
aI0
aI1
aI2
aI0
aI1
aI3
aI2
aI1
aI2
aI1
aI1
aI1
aI1
aI1
aI1
aI1
aI1
aI1
aI1
aI1
aI1
aI2
aI1
aI2
aI6
aI2
aI1
aI1
aI2
aI6
aI1
aI1
aI1
aI1
aI2
aI3
aI2
aI2
aI3
aI1
aI2
aI4
aI0
aI1
aI1
aI1
aI1
aI1
aI0
aI0
aI2
aI1
aI2
aI2
aI1
aI0
aI1
aI0
aI0
aI0
aI1
aI2
aI1
aI4
aI2
aI1
aI1
aI2
aI4
aI2
aI1
aI1
aI1
aI2
aI1
aI2
aI1
aI5
aI2
aI2
aI1
aI3
aI2
aI1
aI0
aI25
aI1
aI2
aI0
aI5
aI1
aI2
aI5
aI0
aI0
aI0
aI0
aI1
aI1
aI1
aI1
aI1
aI0
aI1
aI1
aI1
aI2
aI1
aI1
aI1
aI1
aI1
aI1
aI19
aI2
aI11
aI1
aI0
aI1
aI0
aI1
aI5
aI2
aI0
aI1
aI3
aI1
aI5
aI2
aI3
aI1
aI1
aI1
aI1
aI1
aI2
aI2
aI0
aI1
aI1
aI1
aI2
aI1
aI4
aI1
aI1
aI1
aI1
aI12
aI3
aI2
aI0
aI1
aI1
aI0
aI1
aI1
aI1
aI1
aI2
aI3
aI1
aI2
aI7
aI3
aI4
aI1
aI1
aI1
aI1
aI2
aI2
aI1
aI2
aI4
aI2
aI5
aI3
aI4
aI1
aI2
aI2
aI1
aI3
aI1
aI1
aI3
aI2
aI1
aI1
aI2
aI3
aI1
aI0
aI4
aI1
aI2
aI1
aI0
aI1
aI2
aI1
aI1
aI1
aI2
aI1
aI1
aI1
aI1
aI4
aI1
aI7
aI1
aI1
aI2
aI1
aI1
aI4
aI2
aI3
aI0
aI4
aI1
aI4
aI5
aI1
aI1
aI0
aI0
aI5
aI8
aI2
aI2
aI1
aI4
aI1
aI0
aI1
aI1
aI1
aI1
aI1
aI3
aI1
aI2
aI1
aI1
aI2
aI1
aI1
aI1
aI0
aI2
aI0
aI2
aI1
aI2
aI2
aI2
aI1
aI25
aI1
aI2
aI5
aI1
aI2
aI1
aI1
aI2
aI1
aI3
aI2
aI1
aI1
aI1
aI1
aI3
aI1
aI1
aI1
aI2
aI0
aI1
aI1
aI1
aI3
aI1
aI2
aI1
aI1
aI6
aI1
aI8
aI1
aI1
aI1
aI3
aI2
aI14
aI1
aI2
aI11
aI2
aI2
aI1
aI1
aI1
aI2
aI1
aI2
aI1
aI3
aI1
aI3
aI1
aI5
aI1
aI2
aI1
aI0
aI1
aI1
aI1
aI1
aI4
aI1
aI1
aI1
aI0
aI1
aI0
aI1
aI3
aI2
aI2
aI1
aI3
aI1
aI1
aI2
aI1
aI0
aI0
aI2
aI2
aI1
aI1
aI1
aI2
aI1
aI1
aI9
aI1
aI0
aI6
aI2
aI2
aI0
aI6
aI1
aI1
aI2
aI1
aI0
aI4
aI1
aI1
aI2
aI1
aI1
aI2
aI0
aI1
aI2
aI1
aI1
aI2
aI0
aI0
aI1
aI1
aI0
aI1
aI2
aI0
aI9
aI2
aI0
aI4
aI6
aI2
aI1
aI1
aI0
aI0
aI0
aI2
aI3
aI1
aI2
aI8
aI1
aI2
aI1
aI1
aI2
aI5
aI1
aI1
aI1
aI2
aI1
aI1
aI1
aI1
aI1
aI1
aI3
aI2
aI0
aI1
aI1
aI4
aI1
aI1
aI0
aI3
aI3
aI0
aI1
aI2
aI0
aI1
aI2
aI1
aI0
aI3
aI1
aI0
aI1
aI0
aI1
aI1
aI1
aI5
aI7
aI1
aI1
aI1
aI3
aI2
aI14
aI3
aI2
aI2
aI5
aI5
aI1
aI1
aI1
aI0
aI0
aI2
aI2
aI1
aI1
aI1
aI4
aI0
aI1
aI1
aI1
aI0
aI1
aI4
aI3
aI0
aI1
aI1
aI1
aI1
aI1
aI1
aI1
aI1
aI1
aI1
aI1
aI1
aI0
aI1
aI1
aI2
aI0
aI0
aI1
aI1
aI1
aI1
aI4
aI0
aI1
aI1
aI2
aI2
aI1
aI1
aI3
aI1
aI1
aI1
aI0
aI0
aI1
aI1
aI9
aI2
aI1
aI3
aI1
aI0
aI1
aI1
aI1
aI3
aI1
aI1
aI1
aI1
aI1
aI2
aI2
aI1
aI0
aI1
aI3
aI0
aI1
aI2
aI1
aI2
aI1
aI1
aI2
aI2
aI3
aI7
aI1
aI0
aI5
aI4
aI1
aI2
aI1
aI1
aI1
aI2
aI1
aI1
aI1
aI3
aI0
aI1
aI2
aI1
aI2
aI0
aI5
aI3
aI1
aI1
aI1
aI1
aI1
aI0
aI10
aI2
aI2
aI0
aI2
aI2
aI1
aI2
aI0
aI2
aI1
aI1
aI1
aI1
aI3
aI2
aI1
aI1
aI2
aI1
aI1
aI0
aI3
aI2
aI2
aI1
aI2
aI0
aI1
aI1
aI3
aI1
aI1
aI2
aI1
aI1
aI1
aI2
aI2
aI1
aI11
aI1
aI1
aI3
aI1
aI1
aI2
aI1
aI1
aI1
aI0
aI0
aI1
aI1
aI3
aI2
aI16
aI6
aI1
aI1
aI2
aI1
aI3
aI0
aI1
aI1
aI1
aI1
aI1
aI2
aI3
aI1
aI0
aI1
aI1
aI0
aI2
aI7
aI1
aI2
aI5
aI11
aI1
aI2
aI1
aI3
aI5
aI1
aI1
aI2
aI1
aI1
aI2
aI5
aI1
aI0
aI1
aI1
aI1
aI2
aI2
aI1
aI2
aI1
aI1
aI2
aI1
aI4
aI2
aI0
aI0
aI1
aI4
aI1
aI6
aI6
aI2
aI2
aI1
aI4
aI5
aI8
aI1
aI1
aI2
aI1
aI0
aI1
aI1
aI4
aI1
aI3
aI1
aI3
aI0
aI2
aI1
aI1
aI3
aI2
aI1
aI0
aI2
aI3
aI1
aI1
aI1
aI3
aI1
aI2
aI1
aI2
aI1
aI1
aI1
aI1
aI1
aI1
aI1
aI2
aI1
aI1
aI6
aI1
aI1
aI2
aI1
aI1
aI4
aI1
aI7
aI2
aI1
aI2
aI2
aI5
aI1
aI0
aI0
aI2
aI1
aI0
aI2
aI2
aI2
aI1
aI1
aI1
aI1
aI1
aI2
aI1
aI2
aI6
aI2
aI1
aI1
aI1
aI1
aI0
aI3
aI1
aI1
aI2
aI1
aI1
aI4
aI0
aI2
aI0
aI1
aI3
aI3
aI1
aI2
aI2
aI2
aI1
aI3
aI2
aI2
aI0
aI2
aI2
aI2
aI1
aI4
aI2
aI0
aI1
aI2
aI2
aI1
aI1
aI1
aI8
aI1
aI1
aI0
aI8
aI1
aI1
aI1
aI2
aI1
aI2
aI2
aI7
aI1
aI3
aI1
aI1
aI1
aI1
aI1
aI2
aI10
aI5
aI4
aI0
aI2
aI1
aI1
aI1
aI1
aI1
aI8
aI2
aI1
aI1
aI23
aI1
aI1
aI1
aI2
aI0
aI1
aI1
aI1
aI2
aI3
aI2
aI3
aI2
aI3
aI1
aI2
aI12
aI1
aI1
aI1
aI1
aI1
aI3
aI2
aI1
aI1
aI9
aI4
aI1
aI3
aI2
aI1
aI2
aI1
aI1
aI1
aI1
aI1
aI1
aI1
aI1
aI1
aI2
aI2
aI1
aI0
aI2
aI1
aI3
aI1
aI1
aI2
aI5
aI2
aI2
aI2
aI0
aI1
aI2
aI1
aI1
aI1
aI1
aI4
aI2
aI3
aI1
aI0
aI1
aI1
aI1
aI1
aI3
aI1
aI0
aI1
aI0
aI1
aI1
aI1
aI1
aI1
aI1
aI2
aI2
aI0
aI2
aI3
aI0
aI1
aI2
aI2
aI1
aI5
aI4
aI14
aI2
aI1
aI1
aI1
aI1
aI1
aI2
aI2
aI0
aI3
aI2
aI1
aI2
aI1
aI1
aI1
aI1
aI1
aI0
aI0
aI1
aI1
aI0
aI2
aI1
aI2
aI1
aI0
aI2
aI2
aI1
aI1
aI1
aI0
aI7
aI1
aI0
aI1
aI2
aI1
aI2
aI2
aI2
aI2
aI1
aI1
aI1
aI2
aI1
aI4
aI1
aI1
aI2
aI2
aI1
aI0
aI1
aI2
aI1
aI2
aI0
aI1
aI0
aI0
aI1
aI1
aI1
aI1
aI1
aI1
aI1
aI1
aI0
aI2
aI1
aI1
aI6
aI0
aI2
aI1
aI2
aI1
aI2
aI1
aI0
aI1
aI2
aI2
aI0
aI1
aI1
aI2
aI1
aI0
aI1
aI2
aI1
aI0
aI3
aI1
aI2
aI0
aI2
aI1
aI1
aI5
aI2
aI1
aI1
aI0
aI0
aI3
aI1
aI1
aI1
aI1
aI1
aI4
aI1
aI1
aI1
aI3
aI1
aI1
aI3
aI1
aI2
aI0
aI0
aI1
aI2
aI2
aI7
aI1
aI2
aI0
aI2
aI2
aI1
aI3
aI1
aI1
aI2
aI7
aI1
aI0
aI0
aI1
aI1
aI4
aI8
aI1
aI1
aI1
aI3
aI4
aI7
aI1
aI4
aI2
aI2
aI2
aI0
aI0
aI1
aI2
aI1
aI3
aI1
aI1
aI1
aI2
aI3
aI8
aI1
aI1
aI6
aI2
aI1
aI1
aI0
aI3
aI1
aI1
aI4
aI1
aI0
aI1
aI1
aI3
aI1
aI2
aI2
aI2
aI0
aI1
aI0
aI1
aI1
aI1
aI2
aI2
aI3
aI12
aI1
aI2
aI1
aI1
aI1
aI1
aI1
aI2
aI2
aI2
aI1
aI1
aI4
aI2
aI1
aI3
aI1
aI3
aI2
aI12
aI1
aI1
aI3
aI2
aI1
aI1
aI1
aI3
aI1
aI1
aI4
aI35
aI0
aI2
aI0
aI0
aI1
aI3
aI1
aI1
aI1
aI0
aI1
aI1
aI1
aI2
aI10
aI1
aI1
aI1
aI1
aI1
aI1
aI0
aI2
aI1
aI1
aI1
aI1
aI6
aI1
aI2
aI1
aI0
aI1
aI2
aI1
aI1
aI1
aI2
aI1
aI7
aI1
aI1
aI9
aI5
aI1
aI2
aI4
aI2
aI2
aI15
aI1
aI0
aI1
aI1
aI1
aI2
aI1
aI1
aI0
aI4
aI4
aI1
aI2
aI1
aI1
aI1
aI5
aI1
aI2
aI4
aI18
aI1
aI2
aI1
aI3
aI1
aI0
aI1
aI2
aI1
aI2
aI1
aI1
aI2
aI0
aI3
aI1
aI2
aI2
aI1
aI1
aI1
aI1
aI1
aI0
aI1
aI1
aI1
aI1
aI1
aI1
aI0
aI1
aI2
aI13
aI1
aI1
aI2
aI1
aI2
aI1
aI1
aI2
aI1
aI0
aI2
aI1
aI1
aI2
aI6
aI1
aI1
aI1
aI2
aI3
aI1
aI1
aI2
aI1
aI1
aI1
aI1
aI1
aI2
aI1
aI1
aI1
aI1
aI2
aI1
aI1
aI0
aI1
aI1
aI2
aI1
aI4
aI0
aI1
aI1
aI1
aI6
aI3
aI0
aI2
aI1
aI1
aI2
aI3
aI2
aI11
aI0
aI4
aI2
aI2
aI1
aI2
aI1
aI2
aI0
aI1
aI1
aI1
aI2
aI1
aI1
aI2
aI4
aI1
aI1
aI1
aI2
aI1
aI1
aI1
aI3
aI2
aI0
aI2
aI1
aI1
aI3
aI1
aI5
aI8
aI1
aI2
aI2
aI0
aI3
aI1
aI1
aI1
aI0
aI1
aI0
aI0
aI3
aI1
aI1
aI0
aI1
aI3
aI0
aI0
aI1
aI2
aI6
aI1
aI2
aI4
aI2
aI7
aI4
aI2
aI1
aI1
aI1
aI1
aI1
aI2
aI1
aI1
aI5
aI1
aI1
aI6
aI5
aI2
aI2
aI0
aI7
aI1
aI2
aI1
aI4
aI5
aI0
aI3
aI0
aI1
aI1
aI2
aI1
aI2
aI2
aI1
aI2
aI1
aI2
aI0
aI3
aI2
aI1
aI1
aI2
aI1
aI5
aI1
aI1
aI1
aI0
aI2
aI3
aI1
aI1
aI2
aI0
aI1
aI4
aI1
aI0
aI2
aI1
aI2
aI3
aI1
aI1
aI1
aI2
aI2
aI0
aI3
aI1
aI0
aI1
aI1
aI0
aI3
aI1
aI2
aI1
aI1
aI1
aI6
aI1
aI0
aI0
aI2
aI3
aI0
aI1
aI1
aI2
aI3
aI1
aI1
aI1
aI1
aI1
aI0
aI1
aI1
aI3
aI2
aI0
aI1
aI2
aI5
aI2
aI1
aI5
aI1
aI2
aI2
aI3
aI1
aI1
aI2
aI1
aI1
aI1
aI1
aI1
aI0
aI0
aI0
aI2
aI1
aI0
aI2
aI2
aI3
aI1
aI3
aI1
aI2
aI2
aI2
aI6
aI4
aI1
aI1
aI1
aI1
aI1
aI2
aI0
aI1
aI1
aI1
aI0
aI3
aI2
aI0
aI1
aI1
aI2
aI1
aI1
aI1
aI1
aI1
aI1
aI1
aI0
aI3
aI0
aI1
aI2
aI1
aI1
aI0
aI1
aI2
aI5
aI2
aI3
aI1
aI1
aI2
aI1
aI1
aI0
aI2
aI1
aI0
aI1
aI0
aI1
aI1
aI1
aI1
aI1
aI1
aI3
aI3
aI1
aI0
aI1
aI3
aI0
aI1
aI2
aI4
aI1
aI1
aI0
aI2
aI0
aI2
aI1
aI1
aI3
aI1
aI0
aI1
aI2
aI1
aI4
aI1
aI2
aI2
aI1
aI7
aI1
aI1
aI2
aI0
aI2
aI1
aI4
aI3
aI8
aI1
aI2
aI13
aI2
aI1
aI1
aI5
aI1
aI1
aI1
aI3
aI2
aI1
aI5
aI0
aI1
aI1
aI2
aI15
aI2
aI5
aI1
aI4
aI2
aI1
aI2
aI1
aI1
aI2
aI1
aI1
aI4
aI3
aI1
aI1
aI2
aI2
aI1
aI2
aI1
aI3
aI1
aI2
aI0
aI2
aI1
aI2
aI1
aI1
aI1
aI1
aI0
aI1
aI2
aI4
aI2
aI1
aI1
aI2
aI1
aI5
aI1
aI0
aI0
aI1
aI4
aI0
aI1
aI1
aI3
aI1
aI0
aI1
aI6
aI0
aI5
aI1
aI1
aI2
aI1
aI7
aI1
aI0
aI1
aI10
aI2
aI0
aI1
aI1
aI2
aI0
aI1
aI4
aI1
aI1
aI1
aI4
aI1
aI0
aI1
aI8
aI1
aI1
aI1
aI2
aI0
aI1
aI1
aI7
aI1
aI1
aI3
aI7
aI1
aI3
aI1
aI1
aI1
aI3
aI2
aI1
aI1
aI0
aI2
aI3
aI1
aI1
aI1
aI0
aI1
aI0
aI1
aI4
aI1
aI4
aI1
aI2
aI1
aI3
aI1
aI1
aI1
aI0
aI2
aI1
aI1
aI1
aI1
aI2
aI1
aI1
aI1
aI0
aI3
aI1
aI2
aI1
aI1
aI1
aI2
aI1
aI1
aI0
aI1
aI0
aI2
aI2
aI2
aI1
aI1
aI2
aI1
aI1
aI2
aI4
aI1
aI1
aI1
aI1
aI1
aI2
aI1
aI1
aI1
aI1
aI2
aI1
aI1
aI1
aI1
aI1
aI2
aI1
aI2
aI1
aI1
aI1
aI1
aI2
aI1
aI2
aI1
aI2
aI2
aI2
aI1
aI1
aI2
aI1
aI1
aI2
aI1
aI0
aI2
aI0
aI1
aI1
aI3
aI1
aI1
aI2
aI2
aI1
aI1
aI1
aI1
aI1
aI1
aI4
aI2
aI1
aI2
aI1
aI1
aI1
aI3
aI1
aI4
aI1
aI1
aI1
aI0
aI4
aI1
aI1
aI0
aI1
aI1
aI1
aI1
aI46
aI1
aI7
aI0
aI1
aI1
aI1
aI2
aI4
aI1
aI1
aI1
aI1
aI1
aI3
aI2
aI1
aI1
aI1
aI0
aI1
aI1
aI1
aI1
aI3
aI2
aI0
aI1
aI3
aI1
aI4
aI1
aI2
aI4
aI2
aI1
aI2
aI1
aI1
aI2
aI3
aI4
aI1
aI1
aI2
aI1
aI2
aI2
aI1
aI1
aI3
aI0
aI1
aI0
aI2
aI2
aI5
aI1
aI2
aI2
aI1
aI0
aI1
aI1
aI2
aI1
aI3
aI1
aI3
aI3
aI3
aI1
aI1
aI2
aI1
aI1
aI1
aI1
aI1
aI0
aI1
aI1
aI2
aI2
aI3
aI1
aI3
aI1
aI1
aI0
aI2
aI0
aI1
aI0
aI0
aI1
aI2
aI1
aI2
aI1
aI3
aI1
aI2
aI3
aI1
aI1
aI0
aI6
aI1
aI1
aI1
aI6
aI2
aI2
aI1
aI1
aI0
aI1
aI0
aI0
aI1
aI2
aI9
aI3
aI5
aI3
aI1
aI1
aI1
aI1
aI3
aI2
aI1
aI2
aI4
aI1
aI2
aI1
aI1
aI1
aI1
aI2
aI1
aI2
aI0
aI0
aI4
aI1
aI1
aI2
aI3
aI1
aI3
aI2
aI5
aI0
aI0
aI4
aI1
aI1
aI5
aI1
aI0
aI1
aI1
aI4
aI1
aI1
aI1
aI3
aI0
aI1
aI1
aI3
aI1
aI2
aI4
aI2
aI1
aI1
aI1
aI1
aI4
aI2
aI1
aI1
aI1
aI1
aI1
aI1
aI0
aI1
aI0
aI1
aI4
aI1
aI3
aI1
aI4
aI2
aI1
aI1
aI1
aI1
aI6
aI1
aI4
aI8
aI2
aI15
aI5
aI1
aI2
aI6
aI0
aI1
aI2
aI1
aI0
aI1
aI1
aI1
aI1
aI1
aI3
aI1
aI2
aI3
aI2
aI1
aI1
aI1
aI1
aI1
aI0
aI2
aI1
aI1
aI2
aI7
aI2
aI1
aI2
aI1
aI1
aI1
aI1
aI0
aI1
aI0
aI1
aI4
aI4
aI4
aI0
aI1
aI1
aI1
aI1
aI3
aI1
aI1
aI1
aI1
aI1
aI3
aI1
aI4
aI3
aI1
aI2
aI2
aI2
aI0
aI1
aI1
aI1
aI1
aI1
aI0
aI1
aI1
aI0
aI2
aI3
aI1
aI1
aI3
aI2
aI2
aI1
aI2
aI2
aI4
aI1
aI1
aI1
aI1
aI2
aI1
aI0
aI5
aI4
aI1
aI1
aI1
aI0
aI1
aI1
aI1
aI1
aI4
aI2
aI2
aI0
aI0
aI0
aI1
aI1
aI3
aI13
aI1
aI1
aI0
aI1
aI1
aI3
aI1
aI1
aI0
aI1
aI9
aI1
aI3
aI1
aI1
aI1
aI2
aI10
aI1
aI0
aI5
aI1
aI3
aI1
aI1
aI1
aI1
aI1
aI4
aI1
aI0
aI3
aI0
aI0
aI1
aI2
aI0
aI1
aI1
aI15
aI2
aI1
aI1
aI1
aI0
aI1
aI1
aI2
aI1
aI3
aI0
aI6
aI0
aI0
aI1
aI2
aI4
aI1
aI1
aI2
aI1
aI1
aI2
aI1
aI2
aI2
aI1
aI1
aI0
aI1
aI2
aI4
aI6
aI1
aI2
aI1
aI1
aI2
aI0
aI1
aI1
aI1
aI1
aI2
aI1
aI3
aI0
aI2
aI1
aI1
aI0
aI3
aI2
aI2
aI1
aI3
aI1
aI3
aI1
aI2
aI1
aI1
aI2
aI1
aI2
aI1
aI9
aI1
aI8
aI1
aI1
aI3
aI4
aI1
aI1
aI1
aI0
aI1
aI2
aI1
aI2
aI1
aI2
aI1
aI1
aI1
aI1
aI1
aI2
aI1
aI1
aI1
aI6
aI6
aI1
aI0
aI0
aI1
aI2
aI1
aI2
aI1
aI1
aI1
aI2
aI12
aI1
aI1
aI1
aI1
aI1
aI2
aI2
aI0
aI1
aI3
aI1
aI1
aI0
aI1
aI1
aI1
aI1
aI2
aI1
aI1
aI1
aI7
aI1
aI2
aI2
aI1
aI1
aI2
aI1
aI3
aI1
aI0
aI1
aI1
aI1
aI1
aI1
aI10
aI1
aI2
aI2
aI3
aI0
aI23
aI1
aI29
aI4
aI1
aI0
aI1
aI1
aI1
aI2
aI2
aI4
aI1
aI0
aI1
aI3
aI3
aI4
aI2
aI1
aI1
aI1
aI1
aI1
aI2
aI2
aI0
aI1
aI1
aI2
aI2
aI1
aI1
aI2
aI0
aI1
aI0
aI1
aI0
aI2
aI3
aI1
aI1
aI1
aI0
aI3
aI8
aI1
aI2
aI2
aI4
aI1
aI0
aI1
aI1
aI3
aI2
aI1
aI8
aI1
aI1
aI2
aI1
aI1
aI1
aI0
aI4
aI1
aI2
aI1
aI0
aI1
aI1
aI2
aI1
aI0
aI4
aI0
aI3
aI1
aI2
aI1
aI0
aI2
aI7
aI1
aI1
aI1
aI2
aI0
aI1
aI1
aI2
aI8
aI1
aI1
aI2
aI1
aI3
aI0
aI1
aI1
aI1
aI1
aI1
aI1
aI0
aI1
aI1
aI2
aI1
aI0
aI1
aI1
aI1
aI2
aI2
aI1
aI1
aI2
aI1
aI1
aI2
aI3
aI1
aI2
aI1
aI2
aI1
aI1
aI0
aI0
aI8
aI2
aI0
aI1
aI1
aI1
aI1
aI2
aI2
aI1
aI2
aI2
aI0
aI5
aI2
aI2
aI1
aI3
aI3
aI0
aI2
aI2
aI0
aI0
aI1
aI1
aI1
aI3
aI3
aI8
aI1
aI2
aI0
aI1
aI0
aI0
aI1
aI1
aI1
aI2
aI3
aI1
aI1
aI0
aI1
aI1
aI0
aI5
aI1
aI1
aI6
aI1
aI1
aI1
aI1
aI2
aI2
aI1
aI2
aI2
aI1
aI1
aI1
aI3
aI2
aI2
aI0
aI2
aI0
aI5
aI1
aI13
aI3
aI1
aI3
aI1
aI1
aI1
aI1
aI1
aI1
aI1
aI1
aI2
aI1
aI1
aI3
aI1
aI2
aI0
aI2
aI0
aI1
aI2
aI1
aI2
aI0
aI2
aI1
aI2
aI2
aI2
aI1
aI1
aI1
aI6
aI1
aI4
aI2
aI1
aI2
aI1
aI1
aI1
aI2
aI2
aI2
aI0
aI4
aI1
aI1
aI1
aI1
aI1
aI1
aI2
aI1
aI0
aI1
aI1
aI3
aI1
aI1
aI1
aI3
aI4
aI2
aI7
aI0
aI1
aI3
aI1
aI1
aI6
aI1
aI1
aI7
aI1
aI1
aI1
aI3
aI1
aI13
aI2
aI2
aI1
aI4
aI2
aI1
aI1
aI2
aI0
aI1
aI5
aI0
aI1
aI4
aI1
aI1
aI1
aI2
aI0
aI1
aI1
aI1
aI2
aI2
aI1
aI3
aI1
aI3
aI1
aI0
aI4
aI1
aI0
aI1
aI0
aI1
aI2
aI1
aI1
aI5
aI1
aI1
aI1
aI1
aI0
aI1
aI1
aI0
aI1
aI3
aI2
aI1
aI1
aI1
aI8
aI0
aI1
aI1
aI1
aI1
aI1
aI5
aI1
aI0
aI0
aI1
aI1
aI1
aI1
aI1
aI1
aI1
aI1
aI0
aI1
aI1
aI0
aI2
aI0
aI1
aI1
aI1
aI1
aI3
aI1
aI3
aI1
aI1
aI8
aI1
aI1
aI1
aI1
aI1
aI1
aI2
aI4
aI1
aI1
aI1
aI3
aI1
aI4
aI3
aI0
aI1
aI1
aI1
aI0
aI1
aI1
aI0
aI1
aI9
aI3
aI5
aI1
aI12
aI9
aI2
aI3
aI0
aI2
aI0
aI3
aI1
aI1
aI2
aI3
aI1
aI9
aI2
aI0
aI2
aI1
aI2
aI4
aI1
aI1
aI1
aI1
aI1
aI3
aI2
aI1
aI2
aI1
aI1
aI1
aI1
aI2
aI1
aI8
aI1
aI1
aI1
aI1
aI1
aI2
aI1
aI1
aI1
aI0
aI2
aI2
aI1
aI1
aI0
aI1
aI1
aI0
aI1
aI3
aI1
aI1
aI3
aI0
aI2
aI2
aI1
aI1
aI1
aI1
aI0
aI1
aI2
aI4
aI2
aI1
aI2
aI0
aI2
aI1
aI4
aI4
aI1
aI1
aI1
aI1
aI1
aI1
aI1
aI1
aI4
aI3
aI1
aI4
aI0
aI1
aI1
aI1
aI3
aI4
aI1
aI1
aI3
aI2
aI2
aI1
aI2
aI2
aI2
aI1
aI1
aI1
aI2
aI1
aI1
aI1
aI2
aI0
aI1
aI2
aI4
aI3
aI0
aI4
aI1
aI1
aI4
aI1
aI1
aI1
aI2
aI1
aI1
aI2
aI7
aI1
aI3
aI1
aI1
aI1
aI2
aI1
aI0
aI1
aI1
aI1
aI1
aI0
aI1
aI1
aI1
aI1
aI1
aI3
aI1
aI0
aI1
aI1
aI3
aI1
aI0
aI4
aI1
aI21
aI5
aI1
aI2
aI1
aI1
aI1
aI1
aI1
aI2
aI2
aI2
aI1
aI2
aI2
aI2
aI1
aI1
aI0
aI3
aI1
aI1
aI0
aI0
aI1
aI2
aI2
aI4
aI1
aI1
aI1
aI0
aI0
aI1
aI1
aI0
aI2
aI0
aI1
aI0
aI1
aI2
aI2
aI1
aI1
aI1
aI4
aI4
aI21
aI1
aI1
aI3
aI0
aI2
aI0
aI1
aI2
aI1
aI2
aI1
aI1
aI1
aI1
aI4
aI0
aI1
aI2
aI4
aI2
aI1
aI2
aI1
aI3
aI1
aI4
aI1
aI1
aI1
aI1
aI3
aI1
aI4
aI4
aI1
aI3
aI1
aI2
aI1
aI3
aI0
aI1
aI0
aI2
aI2
aI0
aI1
aI1
aI1
aI1
aI2
aI5
aI0
aI1
aI9
aI3
aI1
aI1
aI1
aI1
aI3
aI2
aI1
aI2
aI1
aI1
aI1
aI1
aI3
aI2
aI2
aI1
aI1
aI1
aI1
aI1
aI1
aI0
aI1
aI3
aI1
aI2
aI0
aI2
aI2
aI1
aI1
aI1
aI1
aI1
aI1
aI1
aI2
aI1
aI2
aI5
aI0
aI2
aI2
aI0
aI0
aI1
aI4
aI2
aI1
aI5
aI0
aI3
aI4
aI0
aI0
aI1
aI1
aI2
aI3
aI1
aI0
aI1
aI1
aI2
aI1
aI1
aI1
aI2
aI2
aI2
aI2
aI1
aI1
aI1
aI1
aI0
aI1
aI2
aI0
aI17
aI1
aI1
aI1
aI1
aI2
aI1
aI2
aI1
aI0
aI1
aI1
aI2
aI0
aI1
aI1
aI3
aI1
aI0
aI1
aI1
aI0
aI6
aI2
aI2
aI0
aI1
aI1
aI1
aI1
aI1
aI1
aI2
aI0
aI1
aI4
aI0
aI1
aI2
aI1
aI1
aI2
aI2
aI1
aI0
aI0
aI1
aI1
aI3
aI2
aI1
aI1
aI1
aI1
aI2
aI1
aI5
aI3
aI1
aI1
aI2
aI1
aI1
aI3
aI1
aI1
aI1
aI2
aI1
aI0
aI1
aI7
aI1
aI2
aI2
aI1
aI1
aI1
aI1
aI1
aI2
aI1
aI1
aI1
aI1
aI3
aI0
aI0
aI1
aI8
aI2
aI4
aI6
aI1
aI4
aI1
aI1
aI1
aI2
aI1
aI2
aI1
aI0
aI1
aI0
aI1
aI1
aI1
aI2
aI5
aI2
aI1
aI7
aI2
aI2
aI1
aI1
aI2
aI5
aI0
aI1
aI3
aI1
aI2
aI1
aI5
aI3
aI0
aI3
aI1
aI2
aI2
aI3
aI3
aI3
aI1
aI2
aI8
aI0
aI2
aI0
aI1
aI3
aI1
aI1
aI2
aI0
aI1
aI1
aI1
aI2
aI1
aI1
aI1
aI1
aI1
aI0
aI1
aI0
aI1
aI1
aI2
aI1
aI2
aI1
aI1
aI2
aI1
aI1
aI7
aI1
aI5
aI1
aI2
aI2
aI0
aI1
aI0
aI0
aI1
aI5
aI0
aI5
aI3
aI5
aI1
aI4
aI7
aI4
aI1
aI1
aI1
aI2
aI1
aI1
aI2
aI0
aI1
aI3
aI1
aI0
aI1
aI2
aI1
aI2
aI2
aI2
aI0
aI2
aI2
aI12
aI0
aI1
aI1
aI2
aI1
aI2
aI2
aI1
aI1
aI1
aI0
aI1
aI1
aI1
aI2
aI1
aI1
aI1
aI1
aI1
aI3
aI1
aI2
aI1
aI1
aI2
aI11
aI1
aI1
aI4
aI20
aI0
aI7
aI2
aI1
aI2
aI4
aI3
aI1
aI1
aI2
aI3
aI1
aI0
aI4
aI4
aI2
aI6
aI1
aI1
aI3
aI1
aI2
aI4
aI1
aI0
aI3
aI3
aI1
aI1
aI1
aI3
aI0
aI1
aI1
aI7
aI8
aI1
aI1
aI1
aI4
aI0
aI1
aI0
aI2
aI2
aI4
aI1
aI1
aI1
aI1
aI2
aI1
aI1
aI1
aI3
aI6
aI1
aI1
aI1
aI1
aI6
aI0
aI7
aI3
aI1
aI1
aI1
aI2
aI1
aI5
aI1
aI1
aI1
aI1
aI1
aI2
aI5
aI1
aI1
aI2
aI1
aI1
aI1
aI0
aI2
aI1
aI0
aI4
aI1
aI2
aI0
aI2
aI2
aI1
aI0
aI2
aI2
aI11
aI1
aI1
aI1
aI2
aI1
aI6
aI2
aI1
aI1
aI0
aI2
aI3
aI0
aI1
aI0
aI2
aI2
aI2
aI1
aI1
aI2
aI0
aI1
aI5
aI1
aI1
aI4
aI0
aI2
aI1
aI1
aI2
aI1
aI1
aI2
aI4
aI1
aI2
aI1
aI1
aI2
aI1
aI1
aI1
aI0
aI0
aI1
aI1
aI1
aI1
aI2
aI2
aI1
aI1
aI1
aI1
aI1
aI2
aI11
aI2
aI3
aI1
aI0
aI2
aI1
aI2
aI0
aI3
aI3
aI3
aI15
aI2
aI2
aI1
aI1
aI2
aI1
aI6
aI1
aI0
aI0
aI2
aI3
aI1
aI1
aI1
aI2
aI2
aI1
aI0
aI2
aI3
aI2
aI2
aI3
aI1
aI3
aI1
aI1
aI1
aI1
aI4
aI1
aI1
aI7
aI2
aI2
aI3
aI1
aI4
aI1
aI2
aI1
aI1
aI6
aI1
aI0
aI1
aI1
aI2
aI4
aI1
aI1
aI0
aI0
aI2
aI1
aI0
aI0
aI1
aI1
aI0
aI0
aI15
aI2
aI1
aI1
aI3
aI1
aI1
aI1
aI1
aI1
aI0
aI2
aI4
aI1
aI2
aI0
aI1
aI1
aI1
aI1
aI1
aI1
aI1
aI1
aI0
aI1
aI3
aI3
aI0
aI2
aI4
aI1
aI2
aI1
aI1
aI1
aI6
aI0
aI2
aI1
aI2
aI7
aI5
aI2
aI2
aI0
aI1
aI1
aI1
aI1
aI0
aI1
aI1
aI1
aI2
aI1
aI0
aI1
aI6
aI0
aI8
aI3
aI1
aI1
aI1
aI1
aI0
aI2
aI0
aI3
aI1
aI1
aI0
aI2
aI2
aI1
aI1
aI2
aI2
aI0
aI2
aI10
aI6
aI2
aI3
aI1
aI2
aI3
aI2
aI1
aI1
aI1
aI1
aI0
aI2
aI1
aI5
aI6
aI1
aI1
aI1
aI2
aI1
aI0
aI3
aI3
aI1
aI1
aI1
aI2
aI1
aI2
aI1
aI0
aI14
aI2
aI2
aI1
aI4
aI2
aI1
aI2
aI1
aI1
aI1
aI1
aI2
aI0
aI4
aI1
aI1
aI1
aI1
aI3
aI0
aI1
aI0
aI1
aI1
aI0
aI2
aI1
aI3
aI5
aI2
aI1
aI1
aI1
aI8
aI5
aI1
aI2
aI2
aI1
aI1
aI1
aI3
aI0
aI2
aI1
aI8
aI1
aI2
aI1
aI2
aI4
aI1
aI2
aI1
aI1
aI5
aI2
aI2
aI8
aI24
aI3
aI2
aI3
aI1
aI2
aI0
aI1
aI1
aI0
aI1
aI1
aI1
aI1
aI1
aI1
aI1
aI0
aI1
aI2
aI1
aI1
aI3
aI13
aI1
aI2
aI1
aI1
aI0
aI1
aI1
aI0
aI1
aI2
aI2
aI1
aI1
aI2
aI1
aI2
aI2
aI1
aI0
aI1
aI1
aI1
aI2
aI1
aI1
aI0
aI3
aI0
aI1
aI0
aI1
aI1
aI1
aI2
aI1
aI3
aI1
aI0
aI2
aI1
aI2
aI1
aI1
aI2
aI1
aI1
aI2
aI2
aI1
aI1
aI4
aI4
aI1
aI17
aI2
aI1
aI0
aI1
aI2
aI1
aI1
aI1
aI0
aI1
aI1
aI1
aI2
aI0
aI2
aI2
aI1
aI2
aI0
aI2
aI1
aI2
aI2
aI2
aI1
aI2
aI1
aI7
aI3
aI0
aI2
aI0
aI2
aI1
aI2
aI1
aI1
aI1
aI1
aI1
aI3
aI1
aI3
aI2
aI1
aI2
aI0
aI1
aI0
aI1
aI4
aI2
aI5
aI5
aI1
aI0
aI1
aI0
aI1
aI0
aI1
aI11
aI0
aI1
aI1
aI0
aI0
aI3
aI2
aI0
aI3
aI2
aI6
aI1
aI2
aI1
aI1
aI1
aI19
aI1
aI1
aI1
aI1
aI1
aI1
aI2
aI5
aI1
aI1
aI3
aI1
aI3
aI1
aI1
aI1
aI1
aI1
aI1
aI2
aI54
aI1
aI1
aI1
aI0
aI1
aI1
aI1
aI2
aI2
aI1
aI3
aI2
aI0
aI5
aI1
aI1
aI1
aI1
aI4
aI4
aI0
aI1
aI1
aI2
aI1
aI1
aI1
aI1
aI1
aI2
aI1
aI3
aI1
aI2
aI1
aI2
aI1
aI2
aI2
aI3
aI0
aI2
aI3
aI2
aI0
aI2
aI2
aI1
aI1
aI2
aI4
aI4
aI1
aI5
aI3
aI2
aI1
aI1
aI1
aI1
aI0
aI1
aI1
aI1
aI1
aI1
aI0
aI1
aI16
aI1
aI2
aI1
aI2
aI2
aI1
aI0
aI1
aI2
aI3
aI0
aI2
aI1
aI4
aI1
aI5
aI1
aI1
aI2
aI1
aI6
aI2
aI3
aI1
aI1
aI2
aI4
aI4
aI1
aI0
aI3
aI1
aI0
aI1
aI1
aI1
aI1
aI1
aI2
aI1
aI1
aI3
aI3
aI1
aI2
aI4
aI1
aI7
aI1
aI4
aI1
aI1
aI1
aI1
aI2
aI1
aI1
aI1
aI2
aI1
aI2
aI1
aI1
aI2
aI2
aI1
aI1
aI1
aI0
aI1
aI2
aI1
aI2
aI2
aI0
aI4
aI0
aI1
aI1
aI2
aI2
aI1
aI1
aI1
aI1
aI1
aI0
aI1
aI1
aI3
aI1
aI3
aI1
aI2
aI3
aI2
aI2
aI5
aI1
aI1
aI1
aI2
aI1
aI1
aI1
aI1
aI2
aI1
aI1
aI2
aI2
aI2
aI0
aI2
aI2
aI2
aI1
aI0
aI1
aI1
aI2
aI1
aI1
aI1
aI1
aI1
aI3
aI1
aI1
aI2
aI1
aI2
aI1
aI1
aI2
aI1
aI2
aI1
aI1
aI1
aI1
aI2
aI1
aI1
aI0
aI1
aI4
aI1
aI2
aI7
aI4
aI2
aI1
aI1
aI1
aI2
aI1
aI0
aI5
aI0
aI1
aI3
aI1
aI1
aI1
aI2
aI3
aI1
aI1
aI1
aI1
aI5
aI1
aI1
aI1
aI1
aI2
aI1
aI2
aI2
aI1
aI1
aI2
aI9
aI1
aI2
aI1
aI1
aI0
aI1
aI0
aI2
aI2
aI6
aI4
aI1
aI6
aI10
aI1
aI2
aI0
aI1
aI1
aI2
aI4
aI1
aI2
aI10
aI1
aI4
aI2
aI0
aI1
aI0
aI3
aI6
aI1
aI0
aI1
aI1
aI2
aI3
aI3
aI1
aI0
aI1
aI0
aI1
aI6
aI2
aI1
aI1
aI1
aI1
aI3
aI3
aI1
aI1
aI3
aI5
aI4
aI0
aI0
aI6
aI1
aI1
aI1
aI1
aI0
aI1
aI1
aI6
aI1
aI1
aI5
aI1
aI3
aI2
aI1
aI2
aI24
aI1
aI1
aI1
aI1
aI1
aI0
aI1
aI0
aI1
aI2
aI1
aI1
aI1
aI2
aI2
aI1
aI6
aI1
aI0
aI0
aI2
aI1
aI1
aI1
aI1
aI1
aI0
aI2
aI1
aI1
aI4
aI1
aI2
aI3
aI2
aI1
aI1
aI3
aI2
aI1
aI1
aI1
aI1
aI0
aI2
aI0
aI2
aI5
aI0
aI0
aI0
aI0
aI1
aI2
aI1
aI2
aI0
aI0
aI0
aI3
aI1
aI2
aI3
aI1
aI2
aI1
aI1
aI1
aI0
aI2
aI2
aI1
aI1
aI2
aI3
aI5
aI3
aI1
aI2
aI1
aI1
aI1
aI1
aI2
aI2
aI0
aI1
aI2
aI1
aI4
aI3
aI1
aI2
aI1
aI1
aI4
aI2
aI1
aI6
aI1
aI1
aI1
aI1
aI0
aI2
aI1
aI0
aI1
aI2
aI1
aI2
aI2
aI2
aI2
aI1
aI0
aI1
aI5
aI0
aI1
aI0
aI3
aI1
aI3
aI1
aI2
aI4
aI1
aI3
aI1
aI3
aI1
aI3
aI2
aI2
aI0
aI1
aI2
aI1
aI1
aI1
aI1
aI1
aI16
aI2
aI12
aI1
aI0
aI1
aI1
aI2
aI1
aI1
aI1
aI2
aI1
aI1
aI1
aI1
aI0
aI3
aI2
aI1
aI1
aI1
aI1
aI1
aI1
aI5
aI3
aI1
aI1
aI4
aI1
aI0
aI1
aI14
aI1
aI3
aI1
aI3
aI1
aI1
aI1
aI0
aI1
aI1
aI0
aI1
aI2
aI2
aI1
aI5
aI1
aI1
aI2
aI1
aI2
aI7
aI3
aI1
aI1
aI1
aI1
aI4
aI0
aI1
aI13
aI2
aI3
aI1
aI1
aI1
aI1
aI1
aI2
aI1
aI2
aI3
aI0
aI2
aI11
aI14
aI3
aI2
aI1
aI1
aI1
aI1
aI2
aI2
aI2
aI1
aI2
aI1
aI1
aI1
aI1
aI5
aI0
aI1
aI1
aI2
aI2
aI2
aI1
aI0
aI1
aI3
aI1
aI2
aI14
aI2
aI2
aI0
aI1
aI4
aI1
aI2
aI3
aI2
aI1
aI1
aI0
aI1
aI0
aI1
aI1
aI2
aI0
aI1
aI1
aI0
aI6
aI6
aI2
aI1
aI0
aI1
aI1
aI1
aI1
aI0
aI3
aI0
aI1
aI9
aI10
aI2
aI2
aI2
aI1
aI1
aI2
aI1
aI1
aI1
aI1
aI1
aI1
aI2
aI2
aI1
aI1
aI7
aI2
aI2
aI2
aI2
aI2
aI1
aI12
aI1
aI4
aI2
aI2
aI2
aI1
aI2
aI1
aI2
aI3
aI1
aI1
aI2
aI1
aI2
aI6
aI3
aI1
aI1
aI1
aI1
aI1
aI2
aI4
aI2
aI1
aI0
aI3
aI3
aI1
aI2
aI1
aI3
aI1
aI2
aI1
aI2
aI3
aI1
aI0
aI1
aI0
aI1
aI1
aI2
aI2
aI2
aI1
aI2
aI1
aI1
aI1
aI1
aI1
aI6
aI1
aI2
aI3
aI1
aI5
aI1
aI2
aI1
aI1
aI1
aI1
aI1
aI1
aI4
aI0
aI2
aI5
aI2
aI1
aI1
aI4
aI1
aI1
aI1
aI1
aI2
aI1
aI2
aI2
aI2
aI1
aI1
aI2
aI1
aI1
aI1
aI1
aI3
aI3
aI1
aI2
aI2
aI1
aI2
aI1
aI2
aI3
aI1
aI1
aI2
aI1
aI1
aI1
aI1
aI1
aI4
aI1
aI1
aI2
aI1
aI1
aI3
aI6
aI1
aI0
aI2
aI3
aI1
aI0
aI2
aI2
aI1
aI0
aI2
aI0
aI1
aI2
aI0
aI1
aI1
aI2
aI0
aI3
aI1
aI0
aI1
aI1
aI1
aI4
aI3
aI4
aI1
aI4
aI1
aI5
aI0
aI2
aI4
aI1
aI1
aI1
aI2
aI1
aI1
aI8
aI0
aI1
aI2
aI2
aI1
aI1
aI1
aI3
aI4
aI1
aI2
aI1
aI14
aI3
aI3
aI2
aI0
aI1
aI1
aI1
aI1
aI3
aI1
aI1
aI2
aI1
aI1
aI2
aI1
aI2
aI1
aI4
aI0
aI2
aI2
aI3
aI1
aI1
aI13
aI1
aI1
aI2
aI1
aI0
aI1
aI2
aI2
aI1
aI5
aI2
aI2
aI7
aI1
aI1
aI0
aI2
aI1
aI1
aI1
aI1
aI1
aI3
aI0
aI2
aI1
aI1
aI0
aI1
aI0
aI2
aI1
aI1
aI1
aI3
aI7
aI1
aI1
aI1
aI1
aI0
aI4
aI1
aI1
aI4
aI1
aI1
aI1
aI1
aI1
aI1
aI2
aI1
aI1
aI1
aI0
aI1
aI0
aI1
aI2
aI3
aI3
aI1
aI6
aI2
aI1
aI2
aI2
aI1
aI1
aI1
aI0
aI3
aI1
aI1
aI1
aI9
aI1
aI10
aI2
aI3
aI1
aI1
aI1
aI2
aI1
aI0
aI1
aI1
aI4
aI1
aI1
aI1
aI2
aI1
aI2
aI2
aI1
aI0
aI1
aI1
aI3
aI0
aI1
aI1
aI1
aI1
aI1
aI19
aI1
aI1
aI1
aI0
aI2
aI2
aI1
aI2
aI2
aI2
aI1
aI3
aI3
aI0
aI0
aI1
aI1
aI1
aI6
aI3
aI5
aI2
aI2
aI2
aI2
aI3
aI1
aI2
aI0
aI0
aI1
aI0
aI3
aI1
aI1
aI1
aI1
aI0
aI2
aI1
aI5
aI3
aI1
aI1
aI1
aI3
aI1
aI1
aI0
aI1
aI1
aI3
aI1
aI0
aI1
aI2
aI1
aI1
aI1
aI1
aI2
aI1
aI2
aI2
aI2
aI5
aI1
aI1
aI1
aI1
aI0
aI1
aI2
aI3
aI0
aI0
aI3
aI1
aI1
aI2
aI1
aI11
aI1
aI3
aI0
aI1
aI2
aI6
aI1
aI0
aI2
aI1
aI3
aI3
aI1
aI3
aI1
aI2
aI2
aI2
aI1
aI2
aI0
aI3
aI18
aI2
aI1
aI1
aI0
aI2
aI2
aI1
aI0
aI2
aI0
aI1
aI1
aI0
aI7
aI1
aI2
aI1
aI1
aI1
aI0
aI1
aI1
aI6
aI1
aI2
aI0
aI11
aI3
aI3
aI0
aI1
aI1
aI3
aI2
aI1
aI4
aI1
aI2
aI2
aI1
aI1
aI1
aI0
aI1
aI1
aI0
aI0
aI1
aI1
aI2
aI5
aI2
aI2
aI3
aI1
aI1
aI0
aI1
aI1
aI4
aI2
aI2
aI1
aI0
aI0
aI1
aI2
aI1
aI0
aI0
aI1
aI1
aI1
aI3
aI1
aI1
aI1
aI1
aI4
aI2
aI1
aI2
aI1
aI2
aI2
aI3
aI1
aI1
aI1
aI1
aI7
aI2
aI3
aI1
aI1
aI1
aI7
aI2
aI1
aI1
aI3
aI2
aI1
aI1
aI0
aI1
aI2
aI6
aI1
aI4
aI1
aI2
aI1
aI2
aI1
aI8
aI4
aI3
aI2
aI1
aI1
aI0
aI0
aI1
aI1
aI2
aI2
aI1
aI2
aI3
aI1
aI1
aI1
aI1
aI1
aI1
aI1
aI1
aI2
aI1
aI1
aI1
aI2
aI2
aI1
aI1
aI0
aI1
aI6
aI2
aI4
aI2
aI1
aI3
aI0
aI1
aI2
aI1
aI0
aI1
aI2
aI1
aI1
aI2
aI1
aI8
aI1
aI1
aI2
aI1
aI1
aI4
aI1
aI2
aI3
aI4
aI1
aI0
aI1
aI2
aI4
aI1
aI7
aI1
aI1
aI2
aI1
aI0
aI1
aI2
aI2
aI3
aI2
aI1
aI2
aI1
aI0
aI1
aI2
aI3
aI1
aI0
aI1
aI1
aI2
aI1
aI1
aI2
aI1
aI1
aI0
aI1
aI0
aI1
aI1
aI2
aI1
aI5
aI0
aI1
aI1
aI1
aI1
aI1
aI5
aI2
aI1
aI1
aI1
aI0
aI1
aI1
aI2
aI1
aI1
aI3
aI1
aI1
aI0
aI1
aI2
aI2
aI2
aI0
aI0
aI1
aI0
aI2
aI1
aI2
aI0
aI1
aI2
aI2
aI1
aI1
aI3
aI2
aI8
aI10
aI1
aI1
aI5
aI1
aI0
aI0
aI2
aI0
aI1
aI2
aI1
aI2
aI2
aI1
aI1
aI1
aI1
aI2
aI1
aI1
aI2
aI4
aI1
aI1
aI8
aI1
aI1
aI0
aI1
aI1
aI1
aI1
aI1
aI4
aI2
aI1
aI2
aI9
aI0
aI1
aI1
aI1
aI0
aI2
aI1
aI1
aI2
aI1
aI1
aI0
aI2
aI1
aI1
aI5
aI1
aI2
aI0
aI0
aI2
aI1
aI2
aI1
aI1
aI1
aI1
aI4
aI1
aI1
aI1
aI1
aI2
aI1
aI4
aI1
aI1
aI3
aI1
aI1
aI4
aI1
aI1
aI2
aI1
aI0
aI1
aI1
aI1
aI3
aI2
aI13
aI2
aI1
aI2
aI0
aI1
aI3
aI2
aI1
aI0
aI1
aI5
aI1
aI1
aI1
aI0
aI5
aI3
aI1
aI2
aI0
aI2
aI1
aI1
aI4
aI1
aI0
aI8
aI1
aI1
aI1
aI1
aI10
aI1
aI0
aI3
aI2
aI1
aI3
aI4
aI0
aI2
aI1
aI2
aI2
aI1
aI1
aI2
aI0
aI1
aI1
aI1
aI1
aI1
aI0
aI3
aI1
aI1
aI1
aI1
aI4
aI1
aI1
aI2
aI2
aI1
aI1
aI1
aI0
aI1
aI1
aI2
aI5
aI2
aI1
aI0
aI1
aI1
aI0
aI2
aI3
aI1
aI4
aI0
aI2
aI2
aI4
aI1
aI4
aI1
aI1
aI1
aI2
aI2
aI1
aI1
aI2
aI2
aI1
aI0
aI2
aI1
aI0
aI0
aI1
aI0
aI1
aI4
aI1
aI1
aI5
aI1
aI2
aI1
aI2
aI1
aI3
aI5
aI4
aI2
aI0
aI2
aI1
aI2
aI2
aI1
aI0
aI1
aI0
aI1
aI0
aI1
aI4
aI1
aI1
aI1
aI1
aI1
aI1
aI0
aI0
aI1
aI1
aI0
aI2
aI2
aI1
aI0
aI1
aI3
aI0
aI1
aI1
aI2
aI0
aI2
aI2
aI0
aI1
aI1
aI1
aI2
aI1
aI4
aI1
aI1
aI1
aI1
aI2
aI1
aI1
aI1
aI0
aI1
aI4
aI1
aI1
aI2
aI0
aI2
aI1
aI1
aI17
aI2
aI1
aI2
aI10
aI0
aI0
aI1
aI5
aI0
aI4
aI1
aI2
aI1
aI1
aI1
aI2
aI2
aI4
aI1
aI2
aI4
aI3
aI12
aI1
aI1
aI1
aI1
aI0
aI4
aI0
aI1
aI1
aI2
aI1
aI1
aI1
aI1
aI0
aI1
aI1
aI0
aI1
aI1
aI1
aI2
aI0
aI1
aI6
aI1
aI0
aI1
aI4
aI2
aI2
aI1
aI1
aI2
aI1
aI1
aI2
aI4
aI2
aI2
aI2
aI1
aI1
aI4
aI0
aI3
aI4
aI1
aI2
aI1
aI1
aI1
aI1
aI1
aI1
aI14
aI1
aI0
aI1
aI3
aI1
aI3
aI1
aI1
aI0
aI1
aI0
aI1
aI1
aI1
aI1
aI1
aI2
aI1
aI5
aI2
aI1
aI1
aI4
aI4
aI3
aI1
aI0
aI1
aI3
aI3
aI1
aI7
aI1
aI3
aI1
aI0
aI2
aI4
aI1
aI1
aI3
aI1
aI1
aI1
aI2
aI2
aI1
aI0
aI0
aI2
aI8
aI1
aI2
aI2
aI1
aI1
aI0
aI0
aI2
aI1
aI3
aI0
aI0
aI1
aI2
aI1
aI2
aI3
aI1
aI2
aI1
aI2
aI3
aI1
aI0
aI2
aI1
aI2
aI1
aI5
aI1
aI0
aI1
aI2
aI3
aI0
aI1
aI1
aI3
aI2
aI1
aI1
aI2
aI0
aI2
aI0
aI2
aI1
aI1
aI1
aI8
aI4
aI1
aI1
aI1
aI2
aI0
aI1
aI1
aI1
aI2
aI1
aI1
aI1
aI1
aI0
aI1
aI1
aI1
aI2
aI1
aI1
aI4
aI1
aI4
aI5
aI1
aI3
aI2
aI1
aI2
aI1
aI3
aI2
aI1
aI1
aI1
aI5
aI7
aI6
aI4
aI4
aI12
aI0
aI2
aI2
aI6
aI1
aI1
aI1
aI1
aI1
aI0
aI1
aI2
aI1
aI3
aI1
aI1
aI1
aI2
aI4
aI38
aI1
aI0
aI1
aI1
aI2
aI1
aI3
aI2
aI1
aI1
aI0
aI2
aI0
aI3
aI3
aI6
aI1
aI0
aI4
aI1
aI1
aI2
aI0
aI0
aI0
aI1
aI3
aI6
aI1
aI2
aI1
aI1
aI1
aI1
aI1
aI2
aI0
aI1
aI4
aI1
aI1
aI1
aI9
aI1
aI1
aI1
aI1
aI1
aI1
aI1
aI3
aI4
aI1
aI1
aI0
aI3
aI2
aI1
aI1
aI0
aI1
aI1
aI2
aI1
aI0
aI2
aI2
aI0
aI0
aI0
aI1
aI1
aI3
aI1
aI1
aI0
aI0
aI4
aI0
aI0
aI2
aI0
aI0
aI50
aI2
aI0
aI1
aI1
aI1
aI1
aI0
aI2
aI1
aI5
aI1
aI1
aI2
aI1
aI1
aI1
aI5
aI1
aI1
aI3
aI4
aI1
aI2
aI0
aI1
aI1
aI3
aI5
aI1
aI6
aI1
aI3
aI2
aI1
aI2
aI10
aI1
aI3
aI2
aI1
aI1
aI2
aI1
aI1
aI3
aI1
aI1
aI2
aI2
aI1
aI1
aI2
aI1
aI1
aI1
aI0
aI1
aI2
aI1
aI1
aI1
aI0
aI2
aI3
aI0
aI1
aI2
aI1
aI1
aI1
aI8
aI1
aI1
aI0
aI2
aI2
aI0
aI1
aI1
aI1
aI1
aI2
aI2
aI4
aI3
aI1
aI1
aI2
aI1
aI1
aI3
aI1
aI0
aI3
aI1
aI3
aI0
aI1
aI0
aI7
aI1
aI5
aI0
aI2
aI2
aI1
aI0
aI1
aI1
aI2
aI3
aI1
aI8
aI4
aI0
aI0
aI0
aI1
aI1
aI1
aI1
aI1
aI2
aI1
aI1
aI1
aI1
aI4
aI0
aI1
aI1
aI0
aI2
aI2
aI1
aI2
aI2
aI1
aI2
aI2
aI1
aI1
aI1
aI4
aI3
aI2
aI1
aI1
aI2
aI1
aI31
aI3
aI1
aI1
aI0
aI7
aI1
aI2
aI0
aI1
aI2
aI1
aI2
aI1
aI1
aI1
aI3
aI0
aI0
aI2
aI5
aI0
aI1
aI3
aI10
aI3
aI2
aI1
aI1
aI1
aI1
aI0
aI1
aI7
aI1
aI4
aI5
aI0
aI1
aI3
aI3
aI5
aI0
aI3
aI1
aI1
aI3
aI1
aI1
aI1
aI3
aI3
aI1
aI1
aI1
aI5
aI2
aI1
aI1
aI1
aI1
aI1
aI1
aI1
aI0
aI1
aI1
aI1
aI10
aI0
aI0
aI2
aI2
aI3
aI0
aI1
aI9
aI0
aI6
aI3
aI0
aI1
aI2
aI2
aI4
aI2
aI0
aI1
aI1
aI1
aI0
aI3
aI3
aI3
aI6
aI4
aI2
aI2
aI2
aI1
aI1
aI1
aI1
aI1
aI1
aI0
aI0
aI1
aI1
aI0
aI1
aI1
aI1
aI0
aI0
aI1
aI1
aI1
aI2
aI0
aI1
aI2
aI2
aI1
aI2
aI3
aI3
aI1
aI1
aI5
aI1
aI1
aI1
aI0
aI1
aI1
aI2
aI2
aI1
aI2
aI1
aI0
aI3
aI1
aI3
aI2
aI1
aI3
aI1
aI4
aI1
aI0
aI3
aI0
aI0
aI0
aI3
aI1
aI2
aI0
aI1
aI1
aI1
aI2
aI3
aI2
aI1
aI1
aI1
aI1
aI2
aI3
aI1
aI1
aI1
aI2
aI0
aI1
aI0
aI0
aI4
aI1
aI0
aI1
aI14
aI3
aI2
aI2
aI1
aI1
aI2
aI0
aI1
aI3
aI1
aI4
aI1
aI7
aI2
aI2
aI4
aI2
aI0
aI1
aI0
aI1
aI0
aI3
aI1
aI1
aI0
aI4
aI0
aI2
aI8
aI2
aI1
aI1
aI3
aI4
aI1
aI3
aI1
aI1
aI1
aI1
aI2
aI1
aI3
aI1
aI1
aI1
aI3
aI1
aI0
aI3
aI1
aI1
aI1
aI1
aI1
aI2
aI1
aI1
aI1
aI0
aI1
aI4
aI4
aI0
aI4
aI1
aI4
aI4
aI1
aI1
aI2
aI11
aI1
aI1
aI1
aI1
aI1
aI1
aI1
aI2
aI2
aI1
aI2
aI2
aI2
aI1
aI1
aI5
aI1
aI1
aI0
aI1
aI2
aI1
aI4
aI8
aI1
aI4
aI3
aI1
aI3
aI3
aI4
aI1
aI2
aI0
aI0
aI4
aI1
aI1
aI6
aI1
aI2
aI5
aI1
aI2
aI1
aI1
aI7
aI2
aI1
aI1
aI6
aI1
aI1
aI1
aI1
aI11
aI0
aI1
aI3
aI5
aI1
aI1
aI10
aI4
aI1
aI2
aI1
aI1
aI0
aI0
aI1
aI1
aI2
aI0
aI1
aI7
aI1
aI1
aI1
aI0
aI1
aI1
aI1
aI1
aI3
aI2
aI1
aI5
aI2
aI2
aI1
aI2
aI0
aI2
aI1
aI2
aI1
aI1
aI1
aI1
aI1
aI3
aI1
aI0
aI3
aI1
aI1
aI1
aI1
aI1
aI1
aI0
aI1
aI1
aI1
aI2
aI2
aI3
aI0
aI1
aI2
aI1
aI4
aI5
aI1
aI3
aI1
aI1
aI1
aI3
aI10
aI1
aI1
aI2
aI2
aI1
aI1
aI1
aI0
aI1
aI1
aI7
aI1
aI1
aI2
aI1
aI2
aI5
aI2
aI1
aI4
aI2
aI1
aI1
aI1
aI2
aI2
aI2
aI0
aI0
aI1
aI1
aI1
aI1
aI4
aI4
aI5
aI1
aI0
aI4
aI0
aI1
aI3
aI0
aI2
aI1
aI1
aI2
aI1
aI1
aI1
aI1
aI2
aI6
aI1
aI1
aI3
aI0
aI1
aI2
aI0
aI1
aI2
aI1
aI1
aI1
aI1
aI1
aI4
aI1
aI1
aI7
aI2
aI1
aI1
aI2
aI4
aI0
aI0
aI1
aI1
aI2
aI1
aI1
aI0
aI1
aI1
aI1
aI1
aI0
aI1
aI20
aI2
aI0
aI5
aI1
aI0
aI5
aI2
aI0
aI1
aI2
aI0
aI1
aI1
aI2
aI0
aI1
aI7
aI2
aI1
aI1
aI1
aI0
aI1
aI2
aI2
aI1
aI1
aI2
aI6
aI2
aI1
aI1
aI2
aI2
aI1
aI2
aI1
aI1
aI1
aI0
aI0
aI1
aI1
aI0
aI1
aI1
aI1
aI2
aI1
aI1
aI3
aI10
aI1
aI1
aI13
aI0
aI0
aI2
aI0
aI1
aI2
aI7
aI1
aI6
aI1
aI1
aI2
aI0
aI0
aI1
aI1
aI2
aI0
aI1
aI1
aI2
aI1
aI1
aI1
aI1
aI1
aI6
aI2
aI2
aI1
aI2
aI2
aI4
aI1
aI1
aI3
aI3
aI2
aI2
aI2
aI1
aI1
aI2
aI1
aI1
aI1
aI1
aI1
aI2
aI6
aI2
aI1
aI5
aI0
aI2
aI1
aI1
aI2
aI3
aI0
aI1
aI1
aI1
aI1
aI0
aI2
aI1
aI2
aI1
aI3
aI1
aI0
aI1
aI1
aI1
aI1
aI1
aI3
aI10
aI2
aI1
aI2
aI3
aI0
aI3
aI1
aI1
aI1
aI1
aI1
aI1
aI1
aI1
aI1
aI1
aI0
aI1
aI1
aI0
aI3
aI1
aI3
aI2
aI1
aI2
aI1
aI0
aI1
aI1
aI3
aI1
aI1
aI1
aI1
aI2
aI2
aI1
aI1
aI1
aI3
aI0
aI0
aI1
aI0
aI1
aI2
aI2
aI2
aI0
aI1
aI1
aI2
aI1
aI1
aI2
aI1
aI1
aI1
aI2
aI1
aI1
aI1
aI1
aI1
aI5
aI2
aI2
aI4
aI1
aI1
aI3
aI3
aI0
aI2
aI1
aI1
aI1
aI0
aI1
aI0
aI1
aI12
aI1
aI0
aI4
aI2
aI2
aI0
aI1
aI2
aI1
aI1
aI2
aI1
aI1
aI2
aI1
aI1
aI1
aI4
aI0
aI1
aI1
aI1
aI2
aI1
aI1
aI1
aI1
aI1
aI1
aI0
aI1
aI1
aI3
aI2
aI2
aI1
aI1
aI2
aI1
aI1
aI1
aI3
aI3
aI1
aI1
aI2
aI1
aI0
aI1
aI1
aI1
aI1
aI1
aI1
aI1
aI0
aI2
aI1
aI2
aI1
aI1
aI2
aI0
aI2
aI1
aI3
aI1
aI2
aI1
aI4
aI2
aI3
aI3
aI1
aI1
aI1
aI1
aI1
aI1
aI1
aI4
aI2
aI0
aI0
aI1
aI6
aI1
aI5
aI2
aI1
aI3
aI2
aI2
aI1
aI1
aI3
aI1
aI1
aI1
aI1
aI2
aI1
aI1
aI3
aI1
aI1
aI2
aI2
aI1
aI1
aI1
aI0
aI1
aI0
aI1
aI1
aI4
aI1
aI0
aI0
aI1
aI1
aI2
aI0
aI1
aI1
aI1
aI0
aI1
aI1
aI1
aI2
aI0
aI1
aI1
aI1
aI1
aI1
aI1
aI1
aI1
aI2
aI2
aI0
aI1
aI1
aI3
aI2
aI1
aI7
aI8
aI2
aI3
aI1
aI4
aI3
aI3
aI2
aI0
aI1
aI1
aI1
aI1
aI3
aI6
aI1
aI3
aI1
aI2
aI10
aI1
aI1
aI1
aI0
aI1
aI1
aI1
aI2
aI0
aI1
aI5
aI0
aI1
aI2
aI2
aI6
aI1
aI0
aI1
aI1
aI1
aI1
aI3
aI0
aI2
aI1
aI2
aI1
aI2
aI1
aI4
aI5
aI1
aI1
aI1
aI0
aI1
aI0
aI3
aI1
aI1
aI2
aI7
aI2
aI0
aI1
aI1
aI1
aI1
aI2
aI2
aI1
aI2
aI2
aI1
aI1
aI1
aI1
aI0
aI5
aI2
aI0
aI1
aI2
aI1
aI1
aI1
aI2
aI2
aI1
aI1
aI0
aI1
aI1
aI6
aI2
aI1
aI1
aI0
aI2
aI1
aI2
aI0
aI0
aI2
aI1
aI3
aI1
aI1
aI1
aI0
aI4
aI2
aI0
aI0
aI1
aI1
aI9
aI2
aI1
aI1
aI1
aI3
aI2
aI1
aI2
aI2
aI0
aI2
aI1
aI1
aI1
aI0
aI2
aI3
aI1
aI5
aI1
aI2
aI1
aI6
aI1
aI1
aI1
aI1
aI2
aI4
aI1
aI1
aI2
aI2
aI1
aI1
aI1
aI2
aI2
aI1
aI1
aI3
aI2
aI0
aI2
aI1
aI1
aI3
aI2
aI1
aI0
aI15
aI1
aI2
aI0
aI2
aI1
aI18
aI1
aI1
aI1
aI1
aI2
aI2
aI2
aI1
aI0
aI6
aI1
aI0
aI8
aI0
aI2
aI1
aI2
aI4
aI0
aI3
aI1
aI2
aI3
aI1
aI2
aI1
aI1
aI3
aI1
aI0
aI1
aI1
aI1
aI1
aI1
aI1
aI1
aI3
aI0
aI1
aI2
aI1
aI2
aI0
aI9
aI1
aI6
aI2
aI2
aI1
aI1
aI3
aI1
aI1
aI3
aI0
aI6
aI2
aI14
aI1
aI1
aI1
aI1
aI1
aI2
aI2
aI3
aI1
aI2
aI2
aI2
aI0
aI1
aI1
aI1
aI1
aI0
aI1
aI1
aI1
aI1
aI4
aI5
aI1
aI1
aI4
aI1
aI1
aI1
aI1
aI0
aI2
aI2
aI2
aI6
aI2
aI1
aI1
aI1
aI1
aI1
aI1
aI4
aI1
aI2
aI3
aI9
aI2
aI1
aI2
aI11
aI2
aI1
aI3
aI0
aI1
aI1
aI2
aI2
aI0
aI2
aI2
aI3
aI2
aI2
aI1
aI6
aI7
aI0
aI3
aI6
aI6
aI2
aI3
aI1
aI2
aI1
aI0
aI1
aI2
aI1
aI0
aI0
aI1
aI3
aI1
aI1
aI2
aI1
aI0
aI9
aI1
aI1
aI1
aI1
aI0
aI2
aI4
aI2
aI1
aI2
aI0
aI1
aI2
aI8
aI3
aI2
aI1
aI0
aI1
aI2
aI0
aI1
aI1
aI1
aI7
aI2
aI0
aI1
aI1
aI2
aI10
aI3
aI4
aI1
aI1
aI2
aI4
aI1
aI1
aI7
aI2
aI5
aI2
aI1
aI3
aI4
aI1
aI1
aI1
aI5
aI1
aI2
aI1
aI1
aI0
aI1
aI2
aI1
aI1
aI1
aI0
aI3
aI5
aI4
aI3
aI0
aI2
aI0
aI0
aI1
aI1
aI1
aI0
aI1
aI3
aI0
aI1
aI3
aI1
aI1
aI1
aI1
aI3
aI1
aI2
aI3
aI1
aI1
aI1
aI1
aI1
aI2
aI1
aI22
aI1
aI1
aI2
aI1
aI6
aI1
aI3
aI0
aI1
aI3
aI1
aI1
aI2
aI1
aI0
aI5
aI1
aI2
aI1
aI1
aI2
aI11
aI0
aI1
aI2
aI1
aI0
aI0
aI0
aI2
aI2
aI1
aI1
aI0
aI0
aI2
aI2
aI2
aI1
aI3
aI1
aI4
aI1
aI3
aI1
aI2
aI1
aI1
aI2
aI2
aI1
aI1
aI4
aI3
aI1
aI2
aI1
aI1
aI2
aI1
aI0
aI1
aI2
aI3
aI3
aI1
aI0
aI1
aI1
aI5
aI1
aI1
aI1
aI5
aI1
aI1
aI3
aI1
aI0
aI2
aI3
aI1
aI3
aI2
aI2
aI1
aI2
aI1
aI1
aI0
aI1
aI2
aI1
aI5
aI1
aI1
aI2
aI2
aI1
aI2
aI1
aI1
aI0
aI2
aI1
aI5
aI1
aI6
aI2
aI2
aI0
aI6
aI10
aI0
aI3
aI2
aI2
aI0
aI1
aI1
aI0
aI1
aI1
aI1
aI2
aI4
aI1
aI1
aI1
aI1
aI2
aI0
aI3
aI10
aI1
aI1
aI1
aI1
aI3
aI1
aI2
aI11
aI1
aI4
aI1
aI1
aI0
aI6
aI0
aI3
aI2
aI1
aI1
aI1
aI4
aI2
aI0
aI1
aI1
aI1
aI3
aI0
aI1
aI1
aI1
aI2
aI1
aI3
aI1
aI0
aI13
aI1
aI2
aI7
aI1
aI2
aI1
aI1
aI1
aI1
aI1
aI1
aI1
aI1
aI1
aI0
aI1
aI2
aI3
aI3
aI1
aI1
aI1
aI2
aI1
aI4
aI1
aI2
aI1
aI0
aI1
aI2
aI2
aI2
aI1
aI1
aI2
aI2
aI2
aI0
aI0
aI1
aI1
aI8
aI4
aI2
aI2
aI2
aI0
aI0
aI5
aI1
aI1
aI1
aI1
aI39
aI0
aI2
aI1
aI1
aI1
aI1
aI1
aI1
aI1
aI5
aI2
aI2
aI0
aI2
aI1
aI1
aI2
aI2
aI0
aI1
aI1
aI1
aI1
aI1
aI0
aI0
aI2
aI0
aI3
aI1
aI2
aI1
aI0
aI2
aI2
aI1
aI3
aI1
aI1
aI2
aI2
aI2
aI1
aI2
aI1
aI1
aI2
aI3
aI6
aI0
aI1
aI9
aI0
aI1
aI0
aI1
aI1
aI1
aI1
aI1
aI1
aI0
aI2
aI1
aI3
aI2
aI0
aI0
aI2
aI1
aI4
aI1
aI8
aI7
aI3
aI1
aI3
aI1
aI1
aI1
aI1
aI1
aI1
aI0
aI1
aI6
aI0
aI3
aI4
aI1
aI1
aI1
aI1
aI4
aI3
aI1
aI1
aI0
aI4
aI8
aI0
aI6
aI3
aI3
aI3
aI0
aI2
aI2
aI1
aI1
aI1
aI2
aI1
aI3
aI2
aI1
aI2
aI0
aI2
aI1
aI0
aI2
aI0
aI1
aI1
aI2
aI2
aI2
aI1
aI1
aI0
aI3
aI0
aI1
aI1
aI4
aI4
aI0
aI1
aI2
aI1
aI1
aI1
aI2
aI2
aI0
aI0
aI4
aI2
aI2
aI1
aI1
aI2
aI4
aI1
aI0
aI1
aI1
aI0
aI1
aI1
aI2
aI0
aI2
aI1
aI1
aI1
aI2
aI2
aI1
aI7
aI2
aI2
aI2
aI0
aI1
aI2
aI1
aI1
aI1
aI1
aI0
aI1
aI1
aI2
aI2
aI1
aI1
aI1
aI1
aI1
aI2
aI3
aI1
aI2
aI3
aI1
aI0
aI1
aI1
aI0
aI1
aI0
aI2
aI1
aI1
aI1
aI1
aI1
aI5
aI1
aI2
aI1
aI2
aI3
aI0
aI0
aI2
aI2
aI1
aI2
aI1
aI1
aI1
aI1
aI1
aI1
aI4
aI1
aI1
aI2
aI1
aI1
aI3
aI1
aI0
aI2
aI1
aI1
aI0
aI1
aI1
aI1
aI1
aI1
aI1
aI1
aI1
aI1
aI2
aI1
aI1
aI2
aI2
aI3
aI4
aI2
aI0
aI4
aI1
aI1
aI1
aI2
aI3
aI1
aI1
aI1
aI1
aI1
aI1
aI1
aI1
aI2
aI1
aI1
aI1
aI2
aI5
aI1
aI1
aI1
aI2
aI2
aI2
aI1
aI4
aI3
aI2
aI1
aI6
aI2
aI2
aI1
aI3
aI3
aI1
aI1
aI0
aI0
aI1
aI1
aI30
aI1
aI2
aI0
aI4
aI2
aI1
aI0
aI1
aI4
aI1
aI4
aI1
aI0
aI1
aI0
aI2
aI1
aI1
aI1
aI3
aI1
aI0
aI2
aI1
aI0
aI0
aI2
aI0
aI1
aI4
aI1
aI1
aI2
aI3
aI1
aI1
aI2
aI1
aI17
aI1
aI10
aI1
aI0
aI6
aI1
aI2
aI2
aI2
aI2
aI1
aI2
aI1
aI1
aI2
aI5
aI3
aI1
aI1
aI1
aI3
aI1
aI1
aI7
aI3
aI1
aI1
aI5
aI1
aI2
aI3
aI2
aI1
aI1
aI5
aI2
aI1
aI1
aI0
aI0
aI1
aI4
aI2
aI1
aI1
aI0
aI1
aI0
aI6
aI1
aI1
aI2
aI0
aI0
aI3
aI2
aI2
aI1
aI1
aI2
aI1
aI2
aI2
aI1
aI1
aI0
aI2
aI1
aI1
aI1
aI2
aI1
aI1
aI1
aI0
aI1
aI7
aI1
aI2
aI1
aI1
aI0
aI3
aI2
aI2
aI1
aI1
aI2
aI2
aI1
aI2
aI1
aI2
aI0
aI5
aI1
aI1
aI1
aI2
aI3
aI0
aI2
aI5
aI2
aI4
aI0
aI1
aI2
aI1
aI3
aI2
aI1
aI3
aI2
aI0
aI1
aI1
aI0
aI0
aI1
aI7
aI6
aI1
aI1
aI1
aI3
aI1
aI0
aI1
aI2
aI1
aI2
aI1
aI2
aI2
aI1
aI3
aI3
aI2
aI1
aI1
aI2
aI0
aI1
aI2
aI1
aI1
aI1
aI2
aI2
aI1
aI2
aI0
aI1
aI2
aI1
aI3
aI2
aI2
aI4
aI1
aI1
aI0
aI0
aI2
aI1
aI0
aI3
aI1
aI0
aI11
aI1
aI4
aI2
aI1
aI1
aI0
aI1
aI8
aI0
aI1
aI0
aI1
aI1
aI1
aI3
aI9
aI2
aI2
aI0
aI1
aI1
aI0
aI1
aI3
aI0
aI2
aI1
aI0
aI0
aI1
aI1
aI20
aI2
aI2
aI1
aI1
aI2
aI3
aI2
aI1
aI2
aI8
aI2
aI16
aI2
aI1
aI2
aI4
aI2
aI1
aI52
aI1
aI2
aI1
aI3
aI1
aI1
aI3
aI2
aI1
aI2
aI0
aI1
aI2
aI1
aI2
aI1
aI1
aI0
aI6
aI1
aI1
aI1
aI2
aI2
aI1
aI0
aI1
aI1
aI1
aI1
aI0
aI2
aI1
aI7
aI0
aI1
aI1
aI3
aI7
aI1
aI2
aI2
aI3
aI2
aI1
aI0
aI1
aI1
aI2
aI1
aI7
aI1
aI3
aI3
aI1
aI0
aI2
aI0
aI1
aI1
aI1
aI1
aI1
aI2
aI0
aI1
aI1
aI1
aI2
aI2
aI1
aI2
aI3
aI4
aI0
aI1
aI1
aI15
aI3
aI0
aI1
aI1
aI1
aI1
aI1
aI2
aI1
aI1
aI1
aI2
aI1
aI2
aI2
aI1
aI2
aI2
aI2
aI2
aI3
aI1
aI2
aI2
aI2
aI1
aI2
aI1
aI1
aI4
aI1
aI1
aI15
aI1
aI6
aI1
aI1
aI1
aI3
aI1
aI2
aI5
aI0
aI1
aI4
aI1
aI0
aI1
aI8
aI1
aI1
aI1
aI1
aI2
aI0
aI1
aI3
aI0
aI1
aI2
aI1
aI5
aI3
aI1
aI1
aI3
aI1
aI3
aI1
aI4
aI4
aI1
aI7
aI2
aI1
aI3
aI5
aI2
aI2
aI1
aI2
aI1
aI1
aI1
aI3
aI1
aI2
aI4
aI1
aI2
aI1
aI3
aI1
aI2
aI1
aI1
aI0
aI3
aI1
aI1
aI0
aI1
aI1
aI2
aI1
aI1
aI17
aI1
aI1
aI2
aI1
aI2
aI1
aI1
aI1
aI1
aI1
aI7
aI2
aI2
aI1
aI1
aI1
aI3
aI1
aI1
aI1
aI5
aI3
aI2
aI1
aI0
aI3
aI2
aI2
aI0
aI6
aI2
aI3
aI2
aI6
aI1
aI1
aI3
aI1
aI1
aI1
aI1
aI0
aI1
aI1
aI0
aI1
aI4
aI0
aI3
aI1
aI1
aI0
aI5
aI1
aI2
aI3
aI1
aI0
aI16
aI2
aI1
aI1
aI2
aI1
aI0
aI1
aI6
aI1
aI1
aI1
aI4
aI1
aI2
aI2
aI1
aI1
aI3
aI1
aI0
aI1
aI1
aI0
aI2
aI3
aI1
aI0
aI1
aI1
aI1
aI1
aI1
aI1
aI1
aI2
aI1
aI1
aI3
aI5
aI2
aI1
aI0
aI2
aI1
aI0
aI0
aI1
aI2
aI0
aI1
aI4
aI2
aI1
aI1
aI4
aI0
aI1
aI5
aI2
aI2
aI1
aI0
aI1
aI0
aI5
aI1
aI1
aI1
aI0
aI2
aI1
aI2
aI1
aI1
aI7
aI2
aI1
aI3
aI11
aI3
aI3
aI3
aI1
aI1
aI2
aI0
aI2
aI0
aI1
aI1
aI1
aI0
aI2
aI1
aI1
aI1
aI1
aI2
aI1
aI0
aI0
aI1
aI1
aI4
aI3
aI0
aI1
aI1
aI0
aI1
aI20
aI3
aI0
aI1
aI3
aI1
aI1
aI0
aI4
aI1
aI1
aI2
aI2
aI8
aI1
aI1
aI1
aI2
aI1
aI1
aI1
aI1
aI1
aI1
aI3
aI1
aI1
aI0
aI1
aI0
aI2
aI1
aI1
aI1
aI7
aI2
aI0
aI5
aI1
aI1
aI1
aI0
aI1
aI2
aI2
aI2
aI0
aI1
aI3
aI2
aI1
aI3
aI2
aI1
aI0
aI2
aI1
aI1
aI2
aI3
aI3
aI2
aI2
aI1
aI1
aI1
aI2
aI1
aI3
aI3
aI1
aI2
aI2
aI1
aI1
aI1
aI1
aI1
aI1
aI1
aI2
aI1
aI0
aI1
aI1
aI1
aI2
aI0
aI2
aI1
aI0
aI1
aI2
aI2
aI1
aI4
aI1
aI1
aI1
aI0
aI1
aI3
aI2
aI0
aI1
aI1
aI1
aI2
aI2
aI17
aI0
aI6
aI1
aI1
aI1
aI2
aI2
aI3
aI2
aI0
aI2
aI1
aI1
aI1
aI3
aI1
aI2
aI1
aI4
aI1
aI1
aI0
aI0
aI2
aI1
aI0
aI1
aI3
aI1
aI1
aI2
aI1
aI6
aI1
aI1
aI0
aI1
aI1
aI1
aI1
aI1
aI1
aI1
aI0
aI1
aI2
aI7
aI2
aI2
aI35
aI0
aI1
aI1
aI1
aI1
aI3
aI1
aI3
aI2
aI2
aI0
aI1
aI5
aI0
aI3
aI2
aI2
aI1
aI0
aI1
aI1
aI3
aI1
aI1
aI1
aI4
aI3
aI2
aI1
aI1
aI0
aI0
aI1
aI1
aI1
aI2
aI0
aI3
aI6
aI2
aI1
aI1
aI5
aI1
aI1
aI4
aI8
aI1
aI0
aI2
aI1
aI1
aI2
aI1
aI2
aI1
aI2
aI1
aI0
aI1
aI2
aI1
aI1
aI1
aI1
aI1
aI1
aI2
aI0
aI1
aI1
aI0
aI6
aI0
aI0
aI0
aI1
aI0
aI7
aI1
aI2
aI0
aI0
aI0
aI1
aI1
aI2
aI2
aI2
aI2
aI1
aI0
aI0
aI0
aI2
aI3
aI1
aI5
aI5
aI2
aI2
aI1
aI1
aI3
aI2
aI1
aI2
aI1
aI4
aI1
aI1
aI2
aI1
aI1
aI1
aI0
aI1
aI1
aI1
aI2
aI2
aI2
aI2
aI1
aI1
aI0
aI1
aI1
aI0
aI6
aI6
aI1
aI4
aI1
aI0
aI1
aI1
aI1
aI1
aI9
aI2
aI1
aI1
aI1
aI1
aI0
aI1
aI1
aI1
aI2
aI1
aI2
aI1
aI1
aI4
aI13
aI1
aI1
aI1
aI1
aI1
aI6
aI1
aI1
aI1
aI1
aI1
aI1
aI7
aI1
aI1
aI2
aI18
aI1
aI2
aI2
aI2
aI0
aI4
aI0
aI1
aI0
aI4
aI1
aI1
aI1
aI1
aI0
aI0
aI4
aI1
aI0
aI1
aI2
aI1
aI1
aI1
aI1
aI1
aI2
aI1
aI1
aI0
aI0
aI4
aI1
aI2
aI2
aI2
aI3
aI3
aI1
aI1
aI3
aI1
aI1
aI3
aI17
aI1
aI1
aI0
aI1
aI2
aI0
aI1
aI1
aI7
aI14
aI2
aI3
aI2
aI4
aI1
aI1
aI0
aI3
aI1
aI1
aI9
aI5
aI1
aI2
aI1
aI1
aI1
aI2
aI1
aI2
aI2
aI1
aI0
aI0
aI3
aI2
aI1
aI1
aI1
aI0
aI0
aI2
aI1
aI1
aI1
aI2
aI1
aI1
aI4
aI1
aI1
aI1
aI1
aI1
aI2
aI3
aI2
aI1
aI1
aI2
aI3
aI2
aI3
aI0
aI2
aI0
aI1
aI1
aI0
aI1
aI16
aI0
aI4
aI0
aI4
aI2
aI1
aI1
aI2
aI1
aI1
aI0
aI1
aI0
aI6
aI1
aI3
aI1
aI3
aI1
aI2
aI0
aI1
aI1
aI2
aI1
aI1
aI1
aI1
aI1
aI2
aI8
aI2
aI0
aI1
aI2
aI0
aI1
aI2
aI2
aI1
aI1
aI0
aI3
aI0
aI3
aI2
aI2
aI1
aI3
aI1
aI0
aI2
aI2
aI3
aI2
aI1
aI2
aI1
aI1
aI0
aI1
aI3
aI1
aI0
aI1
aI1
aI2
aI17
aI1
aI1
aI1
aI1
aI2
aI1
aI2
aI2
aI1
aI1
aI4
aI4
aI2
aI1
aI1
aI8
aI7
aI1
aI2
aI1
aI2
aI0
aI1
aI1
aI2
aI1
aI2
aI1
aI0
aI1
aI2
aI5
aI0
aI1
aI2
aI2
aI1
aI1
aI1
aI3
aI1
aI1
aI1
aI6
aI1
aI2
aI3
aI4
aI1
aI0
aI1
aI0
aI1
aI1
aI1
aI1
aI1
aI3
aI2
aI11
aI1
aI2
aI1
aI0
aI3
aI2
aI0
aI1
aI2
aI0
aI1
aI1
aI32
aI1
aI0
aI2
aI7
aI6
aI1
aI1
aI1
aI1
aI3
aI4
aI0
aI3
aI1
aI2
aI4
aI2
aI7
aI1
aI1
aI2
aI2
aI1
aI1
aI2
aI9
aI1
aI1
aI1
aI1
aI0
aI1
aI2
aI0
aI1
aI2
aI1
aI4
aI2
aI10
aI0
aI1
aI1
aI1
aI1
aI1
aI14
aI1
aI2
aI1
aI1
aI1
aI0
aI6
aI9
aI2
aI4
aI5
aI1
aI1
aI1
aI0
aI4
aI1
aI2
aI3
aI2
aI4
aI1
aI1
aI1
aI1
aI1
aI5
aI1
aI3
aI1
aI5
aI1
aI0
aI2
aI1
aI1
aI1
aI2
aI0
aI1
aI2
aI0
aI6
aI1
aI1
aI1
aI1
aI1
aI1
aI2
aI1
aI2
aI1
aI1
aI1
aI2
aI0
aI4
aI0
aI4
aI0
aI1
aI1
aI1
aI1
aI0
aI3
aI0
aI0
aI2
aI1
aI4
aI4
aI1
aI1
aI1
aI2
aI1
aI0
aI2
aI1
aI1
aI2
aI5
aI2
aI1
aI1
aI1
aI2
aI3
aI0
aI0
aI4
aI1
aI1
aI3
aI1
aI1
aI3
aI1
aI2
aI1
aI2
aI0
aI3
aI0
aI1
aI1
aI0
aI1
aI2
aI1
aI3
aI0
aI0
aI2
aI0
aI4
aI1
aI1
aI1
aI2
aI1
aI0
aI1
aI1
aI1
aI3
aI1
aI1
aI1
aI2
aI2
aI1
aI1
aI2
aI1
aI1
aI1
aI1
aI1
aI8
aI1
aI15
aI0
aI1
aI8
aI3
aI9
aI1
aI1
aI1
aI1
aI1
aI1
aI2
aI1
aI3
aI2
aI0
aI7
aI1
aI1
aI1
aI1
aI1
aI1
aI1
aI3
aI1
aI2
aI1
aI1
aI2
aI1
aI2
aI0
aI1
aI6
aI1
aI2
aI5
aI0
aI2
aI7
aI0
aI2
aI2
aI1
aI1
aI2
aI1
aI0
aI2
aI1
aI1
aI2
aI1
aI1
aI1
aI1
aI1
aI1
aI2
aI1
aI2
aI1
aI1
aI1
aI1
aI0
aI1
aI2
aI4
aI0
aI2
aI0
aI1
aI4
aI3
aI1
aI1
aI14
aI2
aI1
aI2
aI2
aI1
aI4
aI1
aI3
aI1
aI3
aI2
aI3
aI8
aI2
aI1
aI3
aI1
aI4
aI2
aI1
aI5
aI0
aI2
aI1
aI1
aI1
aI2
aI1
aI1
aI1
aI0
aI1
aI2
aI2
aI3
aI4
aI1
aI1
aI0
aI1
aI2
aI1
aI0
aI1
aI1
aI1
aI1
aI0
aI5
aI1
aI11
aI0
aI1
aI1
aI0
aI1
aI1
aI1
aI1
aI1
aI1
aI4
aI2
aI1
aI1
aI2
aI4
aI1
aI2
aI1
aI3
aI2
aI1
aI0
aI1
aI1
aI3
aI4
aI3
aI1
aI2
aI2
aI0
aI0
aI4
aI1
aI1
aI1
aI1
aI0
aI2
aI0
aI1
aI1
aI1
aI1
aI3
aI1
aI1
aI2
aI3
aI0
aI1
aI1
aI1
aI3
aI5
aI2
aI2
aI2
aI1
aI1
aI1
aI1
aI1
aI2
aI1
aI2
aI2
aI1
aI1
aI0
aI0
aI1
aI0
aI0
aI2
aI1
aI1
aI1
aI1
aI1
aI1
aI1
aI1
aI0
aI2
aI3
aI1
aI25
aI3
aI4
aI2
aI1
aI1
aI2
aI6
aI1
aI1
aI1
aI1
aI1
aI2
aI1
aI1
aI1
aI1
aI1
aI0
aI1
aI0
aI0
aI1
aI1
aI2
aI0
aI0
aI2
aI1
aI1
aI1
aI1
aI3
aI1
aI0
aI2
aI3
aI0
aI3
aI0
aI2
aI2
aI1
aI1
aI4
aI1
aI1
aI2
aI1
aI0
aI1
aI1
aI9
aI1
aI1
aI1
aI1
aI7
aI1
aI4
aI1
aI0
aI2
aI2
aI1
aI6
aI1
aI1
aI1
aI2
aI1
aI1
aI2
aI3
aI1
aI2
aI1
aI2
aI1
aI2
aI0
aI1
aI1
aI1
aI1
aI1
aI2
aI1
aI1
aI1
aI1
aI1
aI3
aI4
aI1
aI0
aI2
aI2
aI1
aI1
aI1
aI4
aI1
aI2
aI1
aI1
aI17
aI1
aI1
aI3
aI3
aI1
aI1
aI5
aI2
aI7
aI1
aI2
aI6
aI1
aI7
aI1
aI1
aI0
aI1
aI1
aI1
aI0
aI1
aI2
aI0
aI1
aI2
aI0
aI2
aI0
aI1
aI1
aI1
aI0
aI1
aI1
aI1
aI5
aI2
aI1
aI2
aI1
aI11
aI2
aI1
aI0
aI1
aI1
aI1
aI1
aI1
aI2
aI4
aI2
aI1
aI2
aI1
aI1
aI0
aI0
aI3
aI2
aI2
aI0
aI28
aI1
aI0
aI1
aI1
aI1
aI1
aI1
aI1
aI11
aI1
aI1
aI1
aI1
aI6
aI2
aI2
aI1
aI1
aI2
aI16
aI1
aI1
aI1
aI2
aI2
aI0
aI1
aI2
aI0
aI0
aI2
aI1
aI2
aI1
aI8
aI3
aI1
aI2
aI1
aI3
aI1
aI2
aI1
aI2
aI9
aI1
aI0
aI1
aI1
aI2
aI1
aI2
aI3
aI4
aI1
aI1
aI0
aI0
aI0
aI1
aI2
aI1
aI2
aI2
aI1
aI1
aI1
aI0
aI3
aI7
aI2
aI10
aI0
aI1
aI1
aI1
aI1
aI10
aI3
aI2
aI1
aI0
aI3
aI1
aI1
aI0
aI1
aI0
aI1
aI2
aI3
aI1
aI2
aI2
aI0
aI2
aI0
aI0
aI1
aI0
aI1
aI2
aI1
aI2
aI2
aI2
aI1
aI1
aI2
aI2
aI1
aI1
aI1
aI4
aI3
aI6
aI1
aI1
aI1
aI2
aI14
aI3
aI0
aI1
aI7
aI2
aI1
aI3
aI1
aI2
aI1
aI0
aI1
aI2
aI0
aI8
aI2
aI1
aI2
aI0
aI1
aI1
aI1
aI3
aI1
aI1
aI15
aI1
aI3
aI2
aI3
aI1
aI3
aI1
aI1
aI1
aI1
aI1
aI1
aI2
aI1
aI1
aI1
aI2
aI2
aI1
aI3
aI0
aI14
aI2
aI4
aI1
aI1
aI0
aI1
aI0
aI2
aI1
aI0
aI3
aI1
aI1
aI2
aI0
aI0
aI0
aI5
aI0
aI2
aI4
aI3
aI1
aI1
aI2
aI0
aI1
aI1
aI1
aI1
aI2
aI3
aI1
aI1
aI1
aI0
aI3
aI0
aI1
aI11
aI0
aI1
aI0
aI1
aI2
aI1
aI1
aI2
aI1
aI1
aI0
aI1
aI0
aI1
aI1
aI1
aI2
aI0
aI1
aI1
aI1
aI2
aI1
aI2
aI2
aI1
aI2
aI1
aI1
aI2
aI0
aI1
aI3
aI2
aI1
aI2
aI1
aI1
aI0
aI0
aI2
aI2
aI1
aI3
aI4
aI1
aI6
aI1
aI3
aI1
aI0
aI2
aI1
aI1
aI1
aI1
aI0
aI1
aI1
aI1
aI1
aI1
aI1
aI2
aI0
aI3
aI1
aI2
aI2
aI1
aI1
aI9
aI1
aI6
aI1
aI2
aI1
aI2
aI1
aI6
aI2
aI1
aI0
aI3
aI3
aI0
aI3
aI11
aI2
aI0
aI2
aI0
aI2
aI2
aI2
aI0
aI9
aI1
aI1
aI1
aI1
aI4
aI1
aI3
aI1
aI1
aI1
aI1
aI1
aI5
aI1
aI1
aI0
aI0
aI1
aI2
aI1
aI5
aI0
aI1
aI2
aI2
aI1
aI3
aI5
aI1
aI1
aI1
aI1
aI0
aI1
aI1
aI1
aI2
aI2
aI5
aI1
aI1
aI1
aI1
aI2
aI1
aI2
aI4
aI2
aI25
aI0
aI1
aI2
aI1
aI0
aI1
aI1
aI3
aI1
aI0
aI1
aI0
aI8
aI1
aI2
aI4
aI1
aI1
aI1
aI1
aI8
aI1
aI0
aI2
aI1
aI2
aI2
aI1
aI4
aI3
aI1
aI2
aI1
aI1
aI2
aI1
aI1
aI1
aI1
aI0
aI1
aI2
aI1
aI2
aI1
aI2
aI1
aI1
aI1
aI1
aI1
aI1
aI1
aI3
aI1
aI4
aI0
aI3
aI1
aI2
aI1
aI1
aI5
aI2
aI2
aI1
aI1
aI0
aI2
aI9
aI3
aI1
aI3
aI2
aI1
aI0
aI2
aI0
aI2
aI1
aI1
aI1
aI5
aI2
aI1
aI2
aI1
aI1
aI9
aI1
aI2
aI1
aI5
aI4
aI1
aI3
aI2
aI1
aI1
aI2
aI0
aI5
aI1
aI1
aI3
aI1
aI1
aI1
aI4
aI3
aI1
aI1
aI4
aI1
aI2
aI2
aI1
aI1
aI2
aI13
aI34
aI1
aI2
aI2
aI0
aI2
aI8
aI2
aI1
aI1
aI3
aI1
aI1
aI2
aI0
aI2
aI1
aI2
aI1
aI1
aI1
aI1
aI5
aI1
aI2
aI1
aI1
aI1
aI3
aI1
aI0
aI1
aI3
aI1
aI3
aI1
aI2
aI1
aI2
aI0
aI1
aI0
aI2
aI1
aI1
aI1
aI1
aI16
aI3
aI1
aI3
aI2
aI1
aI1
aI1
aI2
aI1
aI7
aI2
aI0
aI2
aI0
aI2
aI1
aI5
aI1
aI1
aI1
aI0
aI1
aI1
aI1
aI1
aI1
aI1
aI1
aI15
aI7
aI1
aI2
aI1
aI2
aI3
aI1
aI1
aI1
aI7
aI1
aI1
aI2
aI4
aI8
aI4
aI2
aI1
aI7
aI4
aI1
aI2
aI1
aI1
aI1
aI3
aI1
aI0
aI1
aI0
aI1
aI2
aI1
aI2
aI2
aI1
aI3
aI3
aI2
aI5
aI6
aI1
aI0
aI1
aI4
aI1
aI2
aI1
aI1
aI5
aI3
aI1
aI2
aI1
aI1
aI1
aI1
aI4
aI1
aI2
aI3
aI2
aI3
aI2
aI2
aI1
aI1
aI1
aI0
aI2
aI2
aI1
aI1
aI0
aI1
aI2
aI1
aI1
aI2
aI1
aI1
aI1
aI0
aI1
aI6
aI18
aI0
aI1
aI2
aI2
aI2
aI0
aI0
aI1
aI2
aI0
aI1
aI2
aI1
aI0
aI1
aI2
aI1
aI1
aI1
aI0
aI1
aI1
aI1
aI9
aI1
aI3
aI6
aI1
aI1
aI2
aI2
aI1
aI6
aI2
aI1
aI1
aI1
aI4
aI2
aI2
aI1
aI5
aI0
aI1
aI2
aI2
aI0
aI1
aI1
aI0
aI4
aI1
aI1
aI0
aI3
aI2
aI1
aI2
aI0
aI1
aI1
aI4
aI2
aI2
aI1
aI0
aI1
aI1
aI2
aI1
aI0
aI1
aI1
aI5
aI0
aI1
aI2
aI2
aI0
aI2
aI1
aI2
aI1
aI1
aI1
aI0
aI3
aI2
aI1
aI1
aI1
aI2
aI2
aI1
aI0
aI0
aI2
aI0
aI1
aI2
aI1
aI1
aI2
aI1
aI1
aI1
aI2
aI4
aI1
aI0
aI1
aI1
aI1
aI2
aI4
aI0
aI0
aI1
aI0
aI0
aI1
aI3
aI1
aI4
aI3
aI5
aI2
aI1
aI1
aI1
aI2
aI1
aI4
aI0
aI2
aI3
aI0
aI2
aI0
aI1
aI1
aI2
aI2
aI2
aI5
aI1
aI1
aI1
aI2
aI3
aI1
aI2
aI3
aI1
aI2
aI2
aI1
aI1
aI1
aI1
aI1
aI2
aI1
aI1
aI3
aI1
aI4
aI1
aI2
aI0
aI1
aI1
aI1
aI1
aI1
aI0
aI2
aI2
aI2
aI2
aI1
aI3
aI1
aI1
aI0
aI1
aI2
aI1
aI2
aI1
aI0
aI3
aI4
aI1
aI1
aI1
aI4
aI0
aI1
aI1
aI0
aI2
aI1
aI1
aI2
aI1
aI1
aI0
aI3
aI0
aI2
aI0
aI1
aI1
aI1
aI2
aI3
aI1
aI1
aI1
aI2
aI5
aI2
aI3
aI0
aI1
aI0
aI0
aI1
aI2
aI3
aI3
aI3
aI2
aI1
aI1
aI1
aI1
aI1
aI7
aI0
aI1
aI3
aI5
aI5
aI1
aI2
aI2
aI1
aI2
aI1
aI1
aI2
aI2
aI1
aI0
aI4
aI1
aI1
aI1
aI2
aI2
aI2
aI1
aI1
aI1
aI1
aI1
aI3
aI1
aI4
aI2
aI2
aI1
aI1
aI1
aI1
aI2
aI1
aI3
aI8
aI0
aI1
aI2
aI2
aI1
aI0
aI1
aI1
aI1
aI1
aI1
aI1
aI0
aI1
aI2
aI1
aI8
aI1
aI1
aI1
aI1
aI1
aI1
aI1
aI1
aI1
aI0
aI1
aI4
aI4
aI2
aI0
aI2
aI1
aI1
aI0
aI1
aI2
aI0
aI1
aI1
aI1
aI2
aI1
aI1
aI2
aI1
aI6
aI2
aI3
aI2
aI1
aI3
aI2
aI1
aI2
aI2
aI2
aI1
aI2
aI1
aI1
aI1
aI1
aI0
aI5
aI1
aI0
aI1
aI3
aI2
aI1
aI1
aI1
aI1
aI0
aI1
aI3
aI1
aI1
aI2
aI1
aI0
aI1
aI2
aI3
aI3
aI1
aI1
aI0
aI2
aI1
aI2
aI1
aI1
aI2
aI1
aI3
aI1
aI0
aI1
aI3
aI6
aI1
aI0
aI2
aI1
aI2
aI3
aI3
aI3
aI2
aI1
aI5
aI2
aI2
aI0
aI3
aI4
aI0
aI1
aI0
aI9
aI6
aI1
aI2
aI3
aI2
aI17
aI4
aI1
aI1
aI1
aI1
aI2
aI2
aI1
aI1
aI2
aI1
aI0
aI1
aI0
aI2
aI2
aI3
aI0
aI1
aI0
aI2
aI1
aI1
aI1
aI1
aI0
aI1
aI1
aI1
aI0
aI1
aI1
aI2
aI0
aI36
aI2
aI1
aI5
aI5
aI2
aI1
aI1
aI1
aI0
aI1
aI0
aI1
aI1
aI6
aI18
aI7
aI2
aI6
aI1
aI1
aI1
aI1
aI1
aI0
aI4
aI3
aI0
aI2
aI1
aI1
aI1
aI0
aI1
aI1
aI1
aI2
aI2
aI6
aI1
aI1
aI1
aI3
aI1
aI2
aI1
aI1
aI1
aI9
aI1
aI1
aI1
aI1
aI1
aI1
aI1
aI1
aI1
aI2
aI1
aI1
aI1
aI4
aI2
aI1
aI1
aI1
aI9
aI3
aI1
aI2
aI2
aI9
aI1
aI1
aI5
aI1
aI0
aI2
aI0
aI0
aI2
aI2
aI2
aI11
aI2
aI1
aI1
aI1
aI1
aI4
aI2
aI2
aI1
aI1
aI3
aI1
aI1
aI1
aI1
aI1
aI0
aI1
aI2
aI0
aI1
aI1
aI1
aI6
aI1
aI1
aI2
aI0
aI2
aI2
aI1
aI1
aI0
aI1
aI2
aI1
aI1
aI4
aI1
aI2
aI3
aI1
aI1
aI4
aI1
aI1
aI1
aI1
aI1
aI2
aI2
aI1
aI2
aI3
aI3
aI0
aI0
aI1
aI1
aI1
aI1
aI1
aI5
aI3
aI1
aI1
aI0
aI0
aI1
aI3
aI1
aI1
aI2
aI1
aI1
aI1
aI1
aI1
aI1
aI25
aI2
aI1
aI1
aI0
aI7
aI1
aI1
aI1
aI1
aI0
aI5
aI2
aI1
aI4
aI1
aI1
aI0
aI1
aI0
aI1
aI3
aI1
aI1
aI2
aI1
aI2
aI0
aI1
aI2
aI3
aI1
aI2
aI3
aI1
aI2
aI2
aI1
aI1
aI0
aI2
aI2
aI1
aI1
aI1
aI1
aI0
aI14
aI1
aI2
aI3
aI2
aI1
aI0
aI1
aI9
aI9
aI0
aI2
aI1
aI1
aI3
aI4
aI1
aI1
aI1
aI8
aI0
aI0
aI1
aI1
aI1
aI1
aI2
aI1
aI1
aI0
aI1
aI2
aI0
aI2
aI1
aI1
aI1
aI1
aI1
aI1
aI2
aI0
aI1
aI1
aI2
aI1
aI1
aI1
aI1
aI1
aI3
aI1
aI2
aI1
aI0
aI2
aI3
aI0
aI1
aI1
aI2
aI1
aI2
aI1
aI2
aI1
aI1
aI1
aI1
aI2
aI1
aI4
aI0
aI1
aI1
aI1
aI1
aI1
aI1
aI0
aI2
aI1
aI0
aI1
aI3
aI2
aI1
aI4
aI2
aI2
aI0
aI1
aI1
aI1
aI0
aI1
aI1
aI2
aI2
aI0
aI1
aI1
aI2
aI2
aI1
aI0
aI2
aI0
aI0
aI1
aI1
aI1
aI1
aI1
aI1
aI0
aI1
aI1
aI0
aI6
aI2
aI2
aI1
aI4
aI2
aI1
aI1
aI2
aI1
aI2
aI2
aI0
aI1
aI1
aI1
aI1
aI2
aI6
aI1
aI1
aI1
aI1
aI2
aI2
aI2
aI1
aI1
aI2
aI2
aI1
aI1
aI1
aI7
aI2
aI1
aI1
aI2
aI1
aI1
aI2
aI0
aI2
aI2
aI1
aI0
aI0
aI1
aI1
aI6
aI2
aI2
aI5
aI1
aI2
aI3
aI2
aI1
aI2
aI1
aI2
aI1
aI1
aI2
aI1
aI1
aI1
aI1
aI1
aI2
aI0
aI1
aI5
aI2
aI1
aI2
aI1
aI1
aI1
aI1
aI2
aI1
aI1
aI4
aI0
aI2
aI0
aI1
aI1
aI1
aI1
aI0
aI1
aI1
aI0
aI1
aI1
aI2
aI1
aI2
aI1
aI2
aI3
aI2
aI5
aI2
aI0
aI1
aI1
aI5
aI1
aI1
aI1
aI1
aI2
aI1
aI1
aI1
aI2
aI1
aI2
aI3
aI0
aI1
aI1
aI2
aI1
aI1
aI1
aI4
aI1
aI0
aI1
aI9
aI1
aI1
aI1
aI1
aI1
aI3
aI2
aI1
aI0
aI1
aI1
aI1
aI2
aI3
aI2
aI2
aI1
aI9
aI1
aI3
aI1
aI1
aI1
aI1
aI10
aI5
aI1
aI1
aI1
aI0
aI1
aI4
aI1
aI2
aI1
aI1
aI0
aI5
aI1
aI0
aI1
aI2
aI1
aI1
aI2
aI4
aI3
aI0
aI1
aI1
aI1
aI1
aI1
aI2
aI2
aI0
aI2
aI3
aI2
aI0
aI3
aI1
aI1
aI0
aI7
aI1
aI1
aI2
aI1
aI1
aI1
aI2
aI2
aI2
aI2
aI2
aI0
aI0
aI1
aI1
aI2
aI1
aI1
aI2
aI2
aI0
aI1
aI1
aI2
aI1
aI5
aI1
aI1
aI1
aI1
aI2
aI4
aI4
aI2
aI0
aI1
aI1
aI0
aI4
aI1
aI2
aI2
aI1
aI1
aI1
aI2
aI1
aI2
aI1
aI1
aI11
aI1
aI1
aI3
aI1
aI1
aI1
aI0
aI4
aI1
aI0
aI3
aI3
aI1
aI23
aI1
aI1
aI2
aI3
aI1
aI0
aI3
aI2
aI1
aI4
aI1
aI10
aI1
aI1
aI2
aI0
aI1
aI3
aI1
aI1
aI0
aI4
aI1
aI8
aI1
aI0
aI1
aI0
aI2
aI2
aI2
aI1
aI0
aI2
aI4
aI2
aI1
aI1
aI0
aI5
aI2
aI0
aI1
aI1
aI3
aI2
aI0
aI5
aI1
aI1
aI1
aI1
aI0
aI1
aI3
aI2
aI3
aI0
aI2
aI0
aI1
aI1
aI2
aI0
aI1
aI1
aI1
aI1
aI2
aI1
aI1
aI1
aI1
aI1
aI2
aI1
aI4
aI1
aI1
aI2
aI5
aI1
aI2
aI6
aI10
aI1
aI1
aI1
aI1
aI1
aI3
aI0
aI1
aI2
aI1
aI2
aI0
aI3
aI19
aI1
aI1
aI2
aI2
aI1
aI9
aI0
aI1
aI1
aI1
aI1
aI1
aI1
aI1
aI2
aI1
aI1
aI1
aI1
aI7
aI0
aI1
aI1
aI0
aI2
aI0
aI2
aI0
aI1
aI1
aI0
aI1
aI2
aI1
aI2
aI2
aI1
aI8
aI1
aI1
aI0
aI3
aI2
aI1
aI3
aI0
aI1
aI2
aI1
aI0
aI3
aI3
aI1
aI1
aI3
aI1
aI0
aI1
aI1
aI1
aI1
aI2
aI1
aI1
aI1
aI2
aI0
aI1
aI4
aI1
aI1
aI1
aI3
aI1
aI2
aI2
aI1
aI1
aI1
aI1
aI2
aI1
aI1
aI1
aI1
aI1
aI1
aI2
aI5
aI3
aI1
aI1
aI2
aI2
aI0
aI4
aI2
aI1
aI1
aI1
aI0
aI2
aI1
aI1
aI1
aI2
aI1
aI4
aI1
aI0
aI1
aI1
aI0
aI5
aI5
aI2
aI1
aI2
aI1
aI1
aI1
aI1
aI7
aI0
aI1
aI1
aI1
aI1
aI2
aI0
aI2
aI5
aI0
aI3
aI3
aI3
aI4
aI1
aI1
aI1
aI1
aI2
aI0
aI1
aI0
aI1
aI2
aI2
aI0
aI4
aI1
aI0
aI1
aI1
aI2
aI1
aI2
aI2
aI1
aI0
aI1
aI0
aI1
aI2
aI1
aI17
aI1
aI1
aI1
aI1
aI3
aI8
aI1
aI1
aI1
aI1
aI1
aI1
aI1
aI9
aI1
aI2
aI1
aI1
aI4
aI0
aI0
aI9
aI1
aI0
aI1
aI1
aI7
aI10
aI1
aI2
aI2
aI2
aI1
aI1
aI1
aI1
aI1
aI1
aI4
aI1
aI0
aI4
aI1
aI1
aI2
aI2
aI0
aI1
aI2
aI2
aI3
aI1
aI1
aI2
aI1
aI1
aI2
aI2
aI1
aI1
aI1
aI2
aI1
aI1
aI1
aI1
aI1
aI3
aI2
aI1
aI3
aI2
aI1
aI6
aI1
aI2
aI1
aI1
aI6
aI2
aI2
aI0
aI1
aI2
aI1
aI1
aI1
aI7
aI0
aI1
aI3
aI1
aI1
aI4
aI1
aI1
aI2
aI1
aI2
aI1
aI1
aI7
aI1
aI0
aI1
aI2
aI1
aI1
aI1
aI0
aI2
aI1
aI1
aI1
aI3
aI2
aI12
aI3
aI1
aI1
aI2
aI0
aI0
aI4
aI3
aI1
aI1
aI5
aI0
aI2
aI2
aI1
aI0
aI3
aI1
aI1
aI1
aI1
aI0
aI2
aI1
aI1
aI1
aI1
aI1
aI1
aI1
aI1
aI1
aI4
aI2
aI1
aI1
aI1
aI2
aI1
aI0
aI1
aI0
aI3
aI3
aI1
aI1
aI1
aI1
aI1
aI1
aI1
aI3
aI1
aI2
aI1
aI3
aI7
aI4
aI1
aI1
aI1
aI2
aI1
aI1
aI2
aI2
aI0
aI4
aI1
aI0
aI1
aI1
aI1
aI1
aI1
aI1
aI2
aI1
aI1
aI37
aI0
aI2
aI3
aI1
aI1
aI0
aI1
aI1
aI6
aI2
aI5
aI3
aI1
aI1
aI2
aI1
aI1
aI2
aI2
aI3
aI2
aI1
aI1
aI1
aI2
aI1
aI4
aI4
aI1
aI2
aI2
aI1
aI2
aI1
aI1
aI2
aI5
aI2
aI3
aI1
aI1
aI4
aI1
aI0
aI1
aI1
aI1
aI1
aI1
aI0
aI1
aI3
aI1
aI2
aI1
aI2
aI1
aI4
aI3
aI0
aI2
aI0
aI2
aI0
aI4
aI1
aI1
aI1
aI3
aI0
aI1
aI0
aI10
aI1
aI1
aI6
aI1
aI1
aI1
aI1
aI1
aI1
aI2
aI1
aI2
aI0
aI5
aI1
aI1
aI1
aI1
aI15
aI2
aI1
aI5
aI0
aI1
aI1
aI2
aI1
aI0
aI1
aI0
aI0
aI1
aI1
aI2
aI1
aI1
aI1
aI1
aI4
aI1
aI1
aI1
aI2
aI2
aI0
aI1
aI3
aI5
aI4
aI0
aI1
aI0
aI5
aI1
aI0
aI0
aI13
aI4
aI0
aI1
aI0
aI7
aI1
aI2
aI3
aI1
aI4
aI2
aI1
aI1
aI1
aI0
aI2
aI0
aI1
aI1
aI2
aI1
aI1
aI1
aI1
aI1
aI2
aI3
aI1
aI3
aI4
aI1
aI6
aI1
aI1
aI1
aI1
aI2
aI1
aI19
aI5
aI1
aI1
aI5
aI1
aI1
aI1
aI5
aI1
aI1
aI1
aI2
aI2
aI3
aI2
aI2
aI1
aI3
aI1
aI7
aI1
aI2
aI2
aI6
aI1
aI2
aI2
aI8
aI1
aI5
aI2
aI0
aI2
aI2
aI2
aI2
aI1
aI2
aI0
aI2
aI1
aI1
aI1
aI2
aI1
aI1
aI2
aI0
aI6
aI2
aI0
aI1
aI10
aI3
aI1
aI1
aI1
aI1
aI1
aI3
aI2
aI2
aI1
aI12
aI3
aI1
aI1
aI1
aI3
aI1
aI4
aI2
aI1
aI3
aI1
aI1
aI1
aI0
aI1
aI2
aI2
aI2
aI1
aI1
aI1
aI0
aI1
aI1
aI1
aI2
aI0
aI1
aI1
aI2
aI2
aI4
aI1
aI3
aI8
aI1
aI2
aI1
aI1
aI2
aI1
aI2
aI1
aI4
aI2
aI1
aI1
aI0
aI2
aI3
aI1
aI0
aI3
aI3
aI2
aI1
aI1
aI1
aI1
aI2
aI1
aI1
aI1
aI0
aI3
aI6
aI2
aI1
aI1
aI1
aI1
aI1
aI1
aI1
aI1
aI4
aI1
aI0
aI2
aI1
aI7
aI1
aI3
aI2
aI1
aI2
aI1
aI4
aI1
aI5
aI2
aI1
aI2
aI1
aI0
aI0
aI2
aI1
aI3
aI2
aI0
aI2
aI4
aI8
aI1
aI1
aI1
aI1
aI2
aI5
aI2
aI2
aI2
aI0
aI0
aI1
aI1
aI1
aI2
aI1
aI2
aI3
aI1
aI1
aI0
aI1
aI1
aI5
aI1
aI2
aI1
aI2
aI1
aI8
aI1
aI1
aI2
aI1
aI0
aI1
aI1
aI1
aI1
aI2
aI1
aI0
aI3
aI1
aI2
aI1
aI2
aI1
aI0
aI20
aI2
aI0
aI0
aI1
aI0
aI1
aI1
aI2
aI8
aI1
aI1
aI1
aI1
aI1
aI2
aI2
aI1
aI1
aI1
aI1
aI1
aI1
aI3
aI0
aI2
aI2
aI3
aI1
aI1
aI1
aI0
aI1
aI1
aI37
aI1
aI1
aI1
aI1
aI17
aI2
aI1
aI1
aI2
aI1
aI1
aI2
aI7
aI4
aI0
aI4
aI2
aI1
aI1
aI2
aI1
aI1
aI1
aI2
aI1
aI2
aI1
aI1
aI3
aI1
aI1
aI1
aI1
aI1
aI2
aI5
aI1
aI1
aI0
aI8
aI18
aI1
aI3
aI1
aI1
aI8
aI0
aI2
aI1
aI5
aI2
aI2
aI1
aI5
aI1
aI1
aI1
aI1
aI2
aI2
aI1
aI2
aI6
aI3
aI1
aI1
aI2
aI2
aI2
aI1
aI1
aI0
aI1
aI1
aI1
aI1
aI0
aI3
aI2
aI0
aI4
aI2
aI4
aI2
aI0
aI1
aI0
aI3
aI2
aI1
aI1
aI4
aI1
aI1
aI1
aI1
aI1
aI1
aI8
aI1
aI2
aI0
aI2
aI0
aI1
aI1
aI0
aI2
aI1
aI0
aI0
aI1
aI2
aI1
aI0
aI1
aI1
aI0
aI1
aI1
aI2
aI1
aI1
aI3
aI4
aI0
aI5
aI2
aI1
aI1
aI6
aI1
aI2
aI9
aI0
aI1
aI1
aI1
aI2
aI1
aI2
aI1
aI1
aI1
aI1
aI1
aI2
aI1
aI0
aI1
aI1
aI2
aI2
aI0
aI1
aI1
aI1
aI0
aI2
aI3
aI2
aI1
aI1
aI3
aI0
aI1
aI0
aI1
aI4
aI2
aI1
aI2
aI6
aI1
aI2
aI1
aI5
aI1
aI1
aI0
aI2
aI3
aI1
aI6
aI1
aI2
aI1
aI3
aI0
aI5
aI2
aI0
aI1
aI4
aI2
aI2
aI1
aI8
aI1
aI1
aI2
aI1
aI0
aI1
aI1
aI0
aI0
aI1
aI1
aI6
aI0
aI4
aI1
aI1
aI0
aI1
aI1
aI1
aI3
aI1
aI2
aI1
aI1
aI1
aI1
aI5
aI0
aI0
aI1
aI2
aI1
aI1
aI0
aI2
aI1
aI3
aI1
aI1
aI1
aI1
aI2
aI1
aI1
aI1
aI2
aI13
aI0
aI0
aI2
aI0
aI6
aI1
aI2
aI1
aI2
aI5
aI3
aI4
aI1
aI1
aI0
aI2
aI2
aI1
aI1
aI1
aI1
aI1
aI1
aI1
aI3
aI2
aI1
aI1
aI1
aI1
aI1
aI1
aI3
aI3
aI1
aI1
aI1
aI0
aI3
aI1
aI1
aI1
aI1
aI1
aI3
aI1
aI1
aI2
aI0
aI2
aI1
aI1
aI0
aI2
aI1
aI1
aI1
aI4
aI2
aI2
aI5
aI2
aI5
aI1
aI1
aI2
aI3
aI2
aI0
aI1
aI2
aI1
aI0
aI1
aI2
aI5
aI2
aI1
aI3
aI4
aI2
aI1
aI1
aI1
aI2
aI1
aI2
aI8
aI3
aI1
aI4
aI1
aI2
aI1
aI1
aI0
aI1
aI0
aI1
aI1
aI0
aI1
aI5
aI0
aI13
aI2
aI3
aI1
aI1
aI6
aI2
aI5
aI1
aI1
aI1
aI5
aI0
aI1
aI2
aI1
aI1
aI1
aI1
aI1
aI5
aI0
aI2
aI3
aI0
aI0
aI7
aI1
aI1
aI3
aI2
aI2
aI1
aI1
aI1
aI3
aI1
aI10
aI0
aI2
aI1
aI0
aI1
aI1
aI1
aI2
aI1
aI1
aI0
aI1
aI2
aI0
aI2
aI1
aI1
aI3
aI4
aI1
aI3
aI0
aI2
aI2
aI1
aI2
aI2
aI0
aI1
aI2
aI1
aI1
aI1
aI1
aI0
aI2
aI1
aI1
aI1
aI6
aI5
aI1
aI1
aI1
aI1
aI1
aI3
aI1
aI1
aI1
aI0
aI2
aI2
aI1
aI0
aI2
aI2
aI2
aI4
aI0
aI3
aI1
aI1
aI0
aI1
aI4
aI1
aI1
aI4
aI1
aI3
aI3
aI3
aI1
aI2
aI5
aI0
aI3
aI5
aI0
aI1
aI1
aI3
aI3
aI1
aI2
aI3
aI7
aI1
aI1
aI3
aI1
aI1
aI1
aI1
aI1
aI1
aI1
aI0
aI3
aI1
aI1
aI1
aI2
aI0
aI1
aI1
aI4
aI2
aI5
aI3
aI2
aI0
aI2
aI2
aI5
aI1
aI2
aI2
aI1
aI1
aI1
aI12
aI2
aI1
aI1
aI1
aI3
aI1
aI1
aI2
aI1
aI2
aI1
aI3
aI2
aI1
aI5
aI0
aI1
aI0
aI4
aI11
aI3
aI1
aI1
aI1
aI2
aI8
aI11
aI1
aI2
aI1
aI2
aI2
aI1
aI1
aI2
aI1
aI1
aI3
aI3
aI1
aI2
aI1
aI1
aI1
aI1
aI1
aI1
aI1
aI1
aI0
aI4
aI4
aI1
aI1
aI0
aI2
aI2
aI1
aI1
aI0
aI0
aI1
aI0
aI3
aI5
aI1
aI0
aI1
aI1
aI1
aI1
aI3
aI2
aI1
aI2
aI2
aI1
aI0
aI1
aI1
aI1
aI1
aI3
aI3
aI2
aI0
aI1
aI2
aI2
aI1
aI2
aI1
aI1
aI0
aI4
aI0
aI1
aI1
aI2
aI0
aI2
aI8
aI1
aI1
aI2
aI3
aI3
aI1
aI1
aI1
aI1
aI0
aI6
aI1
aI1
aI12
aI0
aI0
aI0
aI2
aI1
aI1
aI2
aI1
aI1
aI2
aI1
aI1
aI6
aI2
aI1
aI1
aI1
aI1
aI1
aI1
aI1
aI7
aI1
aI38
aI1
aI1
aI1
aI0
aI1
aI2
aI1
aI1
aI1
aI2
aI2
aI6
aI2
aI1
aI3
aI2
aI1
aI2
aI2
aI1
aI3
aI3
aI114
aI1
aI1
aI3
aI1
aI2
aI4
aI2
aI3
aI5
aI4
aI2
aI1
aI1
aI0
aI3
aI10
aI2
aI1
aI1
aI1
aI3
aI3
aI1
aI1
aI1
aI1
aI1
aI1
aI2
aI1
aI0
aI1
aI0
aI0
aI1
aI3
aI3
aI2
aI1
aI0
aI1
aI0
aI3
aI1
aI1
aI2
aI1
aI2
aI0
aI2
aI5
aI0
aI1
aI1
aI1
aI1
aI1
aI4
aI1
aI1
aI2
aI1
aI15
aI3
aI1
aI1
aI1
aI0
aI3
aI1
aI12
aI3
aI1
aI1
aI0
aI3
aI0
aI1
aI1
aI3
aI1
aI5
aI1
aI1
aI2
aI13
aI1
aI2
aI1
aI1
aI1
aI1
aI0
aI0
aI1
aI1
aI1
aI1
aI0
aI1
aI2
aI1
aI1
aI44
aI0
aI1
aI2
aI1
aI1
aI0
aI1
aI1
aI1
aI1
aI9
aI0
aI1
aI3
aI2
aI8
aI1
aI0
aI8
aI11
aI1
aI1
aI2
aI0
aI1
aI1
aI1
aI1
aI3
aI1
aI0
aI1
aI1
aI1
aI2
aI2
aI1
aI0
aI1
aI1
aI1
aI5
aI2
aI1
aI1
aI2
aI2
aI2
aI1
aI3
aI0
aI1
aI3
aI2
aI1
aI0
aI1
aI1
aI1
aI3
aI3
aI1
aI1
aI0
aI3
aI1
aI3
aI5
aI1
aI2
aI1
aI1
aI1
aI1
aI1
aI2
aI0
aI2
aI1
aI1
aI1
aI1
aI1
aI2
aI2
aI1
aI1
aI1
aI6
aI2
aI1
aI5
aI7
aI1
aI1
aI1
aI2
aI1
aI1
aI1
aI1
aI1
aI0
aI2
aI2
aI1
aI1
aI1
aI2
aI3
aI2
aI1
aI1
aI2
aI2
aI1
aI1
aI1
aI0
aI1
aI0
aI1
aI3
aI2
aI2
aI1
aI0
aI0
aI1
aI5
aI5
aI1
aI1
aI2
aI3
aI1
aI3
aI0
aI1
aI0
aI1
aI1
aI1
aI3
aI2
aI1
aI1
aI1
aI1
aI0
aI1
aI1
aI2
aI2
aI2
aI1
aI2
aI2
aI1
aI2
aI1
aI0
aI0
aI0
aI2
aI2
aI2
aI1
aI2
aI2
aI0
aI1
aI7
aI0
aI0
aI1
aI4
aI1
aI0
aI1
aI1
aI2
aI1
aI3
aI0
aI3
aI2
aI2
aI1
aI1
aI1
aI1
aI1
aI1
aI1
aI3
aI4
aI7
aI6
aI2
aI1
aI1
aI0
aI2
aI1
aI1
aI0
aI0
aI1
aI2
aI0
aI0
aI0
aI8
aI1
aI1
aI1
aI5
aI2
aI2
aI3
aI1
aI1
aI3
aI4
aI1
aI1
aI1
aI2
aI3
aI1
aI1
aI0
aI1
aI1
aI23
aI2
aI8
aI2
aI1
aI1
aI1
aI1
aI2
aI1
aI2
aI3
aI3
aI1
aI1
aI3
aI0
aI0
aI1
aI0
aI1
aI1
aI1
aI1
aI1
aI2
aI0
aI1
aI5
aI1
aI2
aI1
aI2
aI2
aI0
aI1
aI1
aI2
aI1
aI2
aI1
aI1
aI1
aI1
aI1
aI1
aI4
aI1
aI2
aI1
aI4
aI2
aI2
aI1
aI1
aI1
aI2
aI1
aI1
aI0
aI1
aI7
aI1
aI1
aI1
aI0
aI1
aI1
aI2
aI12
aI1
aI16
aI6
aI2
aI1
aI2
aI0
aI0
aI1
aI1
aI1
aI1
aI1
aI1
aI2
aI1
aI1
aI3
aI1
aI3
aI2
aI2
aI1
aI0
aI1
aI2
aI0
aI1
aI1
aI2
aI1
aI1
aI3
aI1
aI1
aI1
aI1
aI0
aI1
aI1
aI1
aI1
aI1
aI8
aI5
aI21
aI2
aI1
aI3
aI1
aI2
aI1
aI2
aI0
aI2
aI3
aI1
aI2
aI1
aI0
aI2
aI2
aI3
aI0
aI1
aI2
aI2
aI1
aI1
aI1
aI3
aI2
aI1
aI2
aI1
aI2
aI2
aI1
aI1
aI2
aI3
aI1
aI3
aI0
aI0
aI2
aI1
aI2
aI1
aI1
aI1
aI1
aI2
aI1
aI1
aI89
aI2
aI0
aI1
aI1
aI1
aI0
aI2
aI1
aI2
aI1
aI1
aI1
aI1
aI1
aI2
aI2
aI0
aI1
aI1
aI1
aI1
aI1
aI2
aI2
aI1
aI0
aI3
aI1
aI1
aI1
aI4
aI1
aI1
aI2
aI0
aI1
aI1
aI12
aI1
aI1
aI0
aI1
aI2
aI1
aI1
aI1
aI2
aI1
aI5
aI1
aI1
aI3
aI3
aI1
aI0
aI6
aI2
aI0
aI1
aI1
aI3
aI1
aI1
aI2
aI2
aI1
aI1
aI1
aI2
aI1
aI3
aI1
aI2
aI1
aI1
aI0
aI2
aI1
aI1
aI2
aI13
aI0
aI9
aI2
aI1
aI1
aI12
aI2
aI1
aI1
aI2
aI5
aI0
aI2
aI6
aI2
aI2
aI1
aI1
aI2
aI0
aI2
aI5
aI1
aI2
aI5
aI0
aI1
aI2
aI1
aI1
aI2
aI4
aI19
aI3
aI1
aI1
aI2
aI2
aI1
aI0
aI2
aI0
aI1
aI2
aI2
aI1
aI0
aI1
aI5
aI4
aI1
aI1
aI0
aI3
aI2
aI0
aI8
aI1
aI0
aI5
aI1
aI3
aI1
aI1
aI2
aI2
aI1
aI2
aI1
aI2
aI2
aI0
aI2
aI1
aI3
aI2
aI0
aI1
aI1
aI1
aI1
aI2
aI2
aI4
aI1
aI0
aI2
aI2
aI2
aI1
aI1
aI0
aI2
aI2
aI4
aI0
aI1
aI2
aI1
aI2
aI1
aI0
aI1
aI10
aI2
aI6
aI2
aI2
aI2
aI1
aI2
aI1
aI2
aI0
aI0
aI1
aI1
aI0
aI2
aI0
aI1
aI1
aI1
aI2
aI2
aI1
aI2
aI3
aI2
aI4
aI1
aI1
aI1
aI2
aI1
aI1
aI1
aI4
aI4
aI1
aI3
aI0
aI1
aI4
aI2
aI1
aI2
aI1
aI4
aI2
aI5
aI1
aI1
aI5
aI1
aI1
aI1
aI2
aI1
aI1
aI2
aI2
aI1
aI0
aI7
aI3
aI1
aI8
aI1
aI1
aI1
aI1
aI0
aI2
aI5
aI1
aI0
aI3
aI1
aI0
aI0
aI3
aI1
aI0
aI0
aI1
aI1
aI1
aI2
aI3
aI0
aI1
aI1
aI1
aI1
aI1
aI3
aI4
aI1
aI1
aI2
aI13
aI2
aI1
aI1
aI0
aI7
aI2
aI0
aI1
aI0
aI4
aI3
aI1
aI1
aI4
aI0
aI1
aI5
aI4
aI1
aI1
aI4
aI2
aI1
aI2
aI0
aI4
aI1
aI2
aI1
aI2
aI2
aI1
aI1
aI1
aI1
aI1
aI1
aI1
aI1
aI1
aI0
aI1
aI4
aI2
aI0
aI8
aI3
aI0
aI0
aI1
aI1
aI0
aI1
aI1
aI2
aI1
aI2
aI3
aI3
aI1
aI1
aI2
aI0
aI1
aI0
aI0
aI1
aI0
aI1
aI1
aI4
aI1
aI1
aI2
aI0
aI2
aI1
aI1
aI1
aI2
aI0
aI2
aI1
aI2
aI1
aI1
aI0
aI2
aI2
aI2
aI1
aI1
aI1
aI5
aI1
aI0
aI0
aI1
aI1
aI2
aI1
aI1
aI1
aI1
aI3
aI6
aI1
aI0
aI2
aI1
aI3
aI3
aI7
aI1
aI4
aI1
aI2
aI4
aI3
aI1
aI1
aI1
aI0
aI2
aI4
aI1
aI1
aI1
aI3
aI1
aI2
aI0
aI1
aI1
aI1
aI1
aI3
aI6
aI1
aI1
aI6
aI1
aI2
aI3
aI1
aI1
aI0
aI2
aI2
aI4
aI1
aI0
aI2
aI1
aI1
aI1
aI1
aI1
aI7
aI1
aI1
aI1
aI2
aI2
aI2
aI0
aI3
aI2
aI2
aI1
aI11
aI1
aI0
aI1
aI1
aI2
aI1
aI1
aI4
aI1
aI0
aI1
aI3
aI2
aI2
aI2
aI0
aI1
aI1
aI1
aI1
aI2
aI1
aI2
aI0
aI1
aI0
aI5
aI1
aI7
aI14
aI4
aI1
aI4
aI1
aI1
aI1
aI1
aI1
aI0
aI1
aI1
aI1
aI1
aI0
aI0
aI0
aI1
aI1
aI2
aI1
aI0
aI1
aI2
aI1
aI2
aI1
aI1
aI1
aI1
aI1
aI2
aI0
aI0
aI1
aI3
aI1
aI1
aI3
aI1
aI2
aI2
aI0
aI1
aI1
aI1
aI1
aI2
aI0
aI1
aI1
aI0
aI2
aI1
aI2
aI1
aI1
aI4
aI2
aI1
aI1
aI1
aI0
aI2
aI1
aI2
aI1
aI1
aI0
aI1
aI2
aI1
aI1
aI0
aI0
aI0
aI2
aI2
aI2
aI1
aI1
aI0
aI1
aI3
aI4
aI1
aI1
aI0
aI1
aI3
aI1
aI0
aI7
aI2
aI1
aI3
aI2
aI1
aI0
aI4
aI1
aI0
aI1
aI1
aI2
aI1
aI2
aI5
aI1
aI6
aI2
aI2
aI1
aI1
aI1
aI1
aI1
aI3
aI1
aI1
aI1
aI1
aI1
aI2
aI1
aI2
aI3
aI0
aI2
aI0
aI1
aI2
aI3
aI1
aI1
aI3
aI1
aI1
aI4
aI2
aI2
aI1
aI1
aI2
aI1
aI0
aI2
aI0
aI1
aI1
aI1
aI0
aI0
aI0
aI1
aI1
aI1
aI5
aI2
aI1
aI1
aI1
aI0
aI1
aI0
aI4
aI1
aI1
aI2
aI0
aI1
aI1
aI3
aI1
aI1
aI1
aI1
aI1
aI1
aI3
aI2
aI4
aI5
aI1
aI1
aI3
aI1
aI1
aI1
aI1
aI5
aI1
aI1
aI1
aI1
aI0
aI0
aI1
aI1
aI1
aI1
aI2
aI1
aI1
aI5
aI1
aI1
aI7
aI1
aI2
aI3
aI2
aI1
aI19
aI0
aI12
aI1
aI1
aI1
aI1
aI2
aI1
aI2
aI3
aI1
aI2
aI1
aI1
aI4
aI3
aI0
aI2
aI0
aI10
aI1
aI5
aI1
aI1
aI1
aI1
aI7
aI0
aI2
aI0
aI3
aI0
aI1
aI3
aI12
aI1
aI1
aI2
aI1
aI2
aI3
aI1
aI1
aI1
aI1
aI0
aI3
aI31
aI2
aI6
aI20
aI1
aI2
aI1
aI2
aI1
aI1
aI2
aI1
aI1
aI2
aI2
aI1
aI2
aI1
aI4
aI1
aI2
aI4
aI2
aI1
aI1
aI1
aI2
aI2
aI2
aI1
aI1
aI4
aI1
aI0
aI2
aI2
aI1
aI2
aI2
aI2
aI1
aI1
aI5
aI0
aI3
aI2
aI0
aI2
aI2
aI1
aI1
aI1
aI2
aI1
aI1
aI1
aI2
aI1
aI1
aI2
aI1
aI1
aI0
aI0
aI1
aI0
aI1
aI0
aI2
aI1
aI0
aI1
aI0
aI3
aI2
aI1
aI5
aI2
aI1
aI1
aI1
aI1
aI1
aI1
aI2
aI1
aI1
aI3
aI2
aI1
aI18
aI2
aI0
aI1
aI2
aI1
aI1
aI2
aI7
aI3
aI1
aI3
aI2
aI1
aI1
aI6
aI1
aI12
aI2
aI0
aI1
aI4
aI0
aI1
aI1
aI5
aI1
aI1
aI1
aI2
aI7
aI1
aI3
aI1
aI0
aI1
aI1
aI4
aI1
aI0
aI1
aI3
aI2
aI2
aI1
aI2
aI0
aI1
aI1
aI4
aI1
aI1
aI2
aI2
aI4
aI1
aI2
aI1
aI2
aI0
aI1
aI3
aI1
aI0
aI1
aI0
aI4
aI0
aI2
aI2
aI0
aI1
aI0
aI1
aI2
aI1
aI0
aI1
aI1
aI2
aI3
aI2
aI3
aI2
aI2
aI1
aI0
aI1
aI0
aI2
aI6
aI3
aI1
aI1
aI1
aI0
aI0
aI1
aI1
aI2
aI2
aI2
aI1
aI1
aI0
aI1
aI1
aI2
aI2
aI5
aI1
aI26
aI1
aI2
aI3
aI3
aI2
aI1
aI6
aI0
aI1
aI1
aI0
aI2
aI1
aI0
aI5
aI0
aI1
aI3
aI2
aI2
aI2
aI22
aI1
aI0
aI2
aI7
aI1
aI3
aI1
aI1
aI5
aI1
aI3
aI2
aI1
aI0
aI3
aI0
aI1
aI1
aI1
aI1
aI1
aI0
aI2
aI1
aI0
aI0
aI1
aI1
aI2
aI2
aI1
aI2
aI1
aI1
aI1
aI2
aI1
aI0
aI0
aI2
aI1
aI1
aI1
aI1
aI1
aI5
aI1
aI2
aI1
aI2
aI1
aI0
aI1
aI1
aI1
aI1
aI1
aI3
aI7
aI0
aI3
aI1
aI4
aI1
aI1
aI1
aI2
aI2
aI2
aI1
aI0
aI5
aI1
aI2
aI1
aI3
aI2
aI0
aI2
aI1
aI4
aI0
aI1
aI1
aI8
aI2
aI1
aI2
aI1
aI1
aI1
aI4
aI1
aI3
aI1
aI1
aI1
aI0
aI0
aI1
aI3
aI1
aI3
aI0
aI1
aI0
aI2
aI5
aI3
aI1
aI0
aI0
aI1
aI0
aI0
aI1
aI1
aI1
aI2
aI1
aI1
aI19
aI4
aI1
aI1
aI1
aI9
aI1
aI1
aI1
aI2
aI4
aI4
aI2
aI2
aI2
aI1
aI1
aI1
aI1
aI5
aI1
aI2
aI0
aI1
aI3
aI1
aI4
aI1
aI22
aI1
aI2
aI1
aI2
aI1
aI1
aI1
aI0
aI1
aI3
aI1
aI1
aI1
aI2
aI2
aI1
aI2
aI1
aI1
aI1
aI1
aI2
aI1
aI2
aI1
aI2
aI1
aI1
aI0
aI1
aI1
aI2
aI4
aI1
aI0
aI2
aI4
aI1
aI0
aI1
aI3
aI1
aI1
aI1
aI4
aI2
aI3
aI0
aI1
aI2
aI1
aI0
aI1
aI3
aI2
aI1
aI1
aI2
aI1
aI1
aI1
aI2
aI1
aI2
aI2
aI0
aI1
aI1
aI2
aI0
aI1
aI4
aI3
aI4
aI2
aI1
aI1
aI1
aI1
aI1
aI11
aI1
aI2
aI0
aI0
aI3
aI1
aI5
aI2
aI5
aI0
aI2
aI1
aI3
aI9
aI1
aI1
aI2
aI1
aI1
aI3
aI4
aI0
aI1
aI2
aI2
aI2
aI1
aI1
aI1
aI1
aI2
aI4
aI2
aI1
aI1
aI1
aI1
aI3
aI1
aI3
aI0
aI2
aI4
aI1
aI0
aI1
aI2
aI2
aI2
aI1
aI0
aI0
aI1
aI2
aI0
aI2
aI1
aI2
aI2
aI0
aI3
aI1
aI0
aI1
aI1
aI1
aI1
aI2
aI3
aI0
aI2
aI0
aI1
aI1
aI1
aI0
aI0
aI0
aI1
aI1
aI2
aI1
aI1
aI1
aI1
aI1
aI1
aI1
aI2
aI3
aI1
aI2
aI3
aI1
aI1
aI2
aI2
aI1
aI9
aI4
aI0
aI2
aI2
aI1
aI0
aI1
aI1
aI2
aI2
aI4
aI3
aI0
aI1
aI8
aI0
aI3
aI10
aI1
aI7
aI0
aI1
aI2
aI1
aI0
aI0
aI2
aI1
aI0
aI1
aI1
aI6
aI6
aI1
aI1
aI1
aI6
aI1
aI0
aI2
aI1
aI0
aI0
aI1
aI1
aI2
aI3
aI1
aI0
aI1
aI1
aI3
aI1
aI1
aI2
aI1
aI0
aI0
aI2
aI1
aI2
aI2
aI0
aI1
aI2
aI1
aI1
aI1
aI5
aI1
aI1
aI1
aI1
aI1
aI1
aI1
aI5
aI1
aI1
aI2
aI2
aI0
aI2
aI1
aI2
aI0
aI1
aI1
aI2
aI0
aI3
aI1
aI3
aI2
aI2
aI1
aI1
aI0
aI2
aI1
aI1
aI1
aI1
aI0
aI1
aI1
aI1
aI1
aI1
aI1
aI2
aI1
aI1
aI3
aI2
aI1
aI1
aI2
aI1
aI0
aI5
aI0
aI1
aI1
aI4
aI1
aI2
aI2
aI1
aI1
aI2
aI0
aI2
aI1
aI0
aI1
aI2
aI2
aI1
aI4
aI1
aI2
aI2
aI1
aI1
aI1
aI1
aI0
aI2
aI3
aI0
aI1
aI0
aI1
aI0
aI2
aI1
aI1
aI2
aI2
aI1
aI1
aI1
aI1
aI0
aI0
aI1
aI1
aI7
aI1
aI1
aI2
aI2
aI1
aI1
aI2
aI0
aI4
aI3
aI1
aI1
aI2
aI4
aI2
aI1
aI0
aI2
aI2
aI1
aI1
aI2
aI5
aI3
aI2
aI1
aI2
aI1
aI1
aI2
aI1
aI2
aI2
aI1
aI2
aI1
aI1
aI0
aI2
aI0
aI1
aI1
aI2
aI0
aI2
aI0
aI1
aI1
aI1
aI2
aI1
aI1
aI1
aI1
aI1
aI1
aI3
aI2
aI4
aI1
aI1
aI2
aI1
aI1
aI10
aI0
aI2
aI1
aI0
aI0
aI1
aI3
aI1
aI8
aI3
aI10
aI1
aI1
aI1
aI1
aI1
aI1
aI1
aI1
aI2
aI1
aI6
aI2
aI0
aI2
aI5
aI1
aI6
aI1
aI2
aI1
aI1
aI1
aI3
aI3
aI2
aI1
aI1
aI0
aI0
aI0
aI1
aI1
aI1
aI1
aI1
aI1
aI2
aI1
aI1
aI0
aI0
aI1
aI0
aI1
aI5
aI2
aI1
aI0
aI2
aI2
aI1
aI2
aI6
aI1
aI1
aI1
aI1
aI1
aI1
aI4
aI4
aI2
aI2
aI1
aI1
aI2
aI1
aI1
aI2
aI2
aI1
aI0
aI1
aI1
aI1
aI2
aI2
aI0
aI1
aI1
aI2
aI2
aI1
aI1
aI1
aI1
aI1
aI1
aI1
aI1
aI1
aI1
aI3
aI2
aI0
aI1
aI1
aI0
aI10
aI2
aI1
aI1
aI0
aI8
aI1
aI2
aI1
aI0
aI1
aI1
aI0
aI1
aI0
aI1
aI1
aI0
aI1
aI0
aI1
aI2
aI0
aI1
aI2
aI2
aI1
aI3
aI1
aI4
aI1
aI2
aI0
aI0
aI2
aI2
aI8
aI1
aI2
aI3
aI1
aI0
aI1
aI1
aI2
aI1
aI3
aI0
aI1
aI1
aI1
aI3
aI1
aI3
aI1
aI15
aI4
aI4
aI2
aI4
aI5
aI1
aI1
aI1
aI1
aI6
aI2
aI0
aI4
aI0
aI1
aI1
aI2
aI1
aI0
aI1
aI1
aI4
aI3
aI1
aI1
aI6
aI1
aI1
aI1
aI2
aI8
aI5
aI3
aI1
aI1
aI3
aI0
aI1
aI0
aI6
aI2
aI1
aI1
aI2
aI2
aI0
aI1
aI1
aI1
aI0
aI1
aI0
aI1
aI2
aI2
aI1
aI0
aI1
aI1
aI1
aI4
aI1
aI1
aI1
aI1
aI2
aI1
aI1
aI2
aI1
aI1
aI1
aI2
aI2
aI1
aI2
aI1
aI1
aI0
aI1
aI2
aI1
aI6
aI8
aI6
aI1
aI1
aI4
aI1
aI0
aI1
aI4
aI1
aI1
aI1
aI1
aI1
aI1
aI3
aI2
aI1
aI1
aI1
aI3
aI3
aI0
aI0
aI2
aI0
aI1
aI4
aI1
aI1
aI2
aI0
aI5
aI1
aI4
aI2
aI1
aI0
aI3
aI1
aI4
aI1
aI1
aI0
aI1
aI2
aI1
aI1
aI2
aI1
aI1
aI1
aI0
aI4
aI3
aI0
aI1
aI1
aI1
aI1
aI2
aI1
aI1
aI5
aI1
aI3
aI0
aI6
aI1
aI1
aI1
aI1
aI1
aI3
aI0
aI1
aI1
aI0
aI1
aI1
aI1
aI1
aI1
aI0
aI0
aI1
aI2
aI1
aI2
aI1
aI1
aI2
aI1
aI0
aI2
aI2
aI1
aI2
aI1
aI1
aI1
aI0
aI2
aI1
aI2
aI1
aI2
aI0
aI2
aI2
aI2
aI1
aI1
aI1
aI1
aI2
aI1
aI1
aI2
aI4
aI1
aI3
aI2
aI0
aI2
aI1
aI0
aI0
aI1
aI2
aI1
aI1
aI3
aI2
aI1
aI1
aI4
aI1
aI1
aI1
aI3
aI5
aI1
aI1
aI1
aI1
aI0
aI1
aI3
aI0
aI0
aI2
aI1
aI1
aI2
aI0
aI1
aI1
aI1
aI2
aI3
aI1
aI2
aI1
aI3
aI2
aI0
aI1
aI2
aI1
aI4
aI2
aI0
aI0
aI0
aI2
aI1
aI0
aI1
aI1
aI1
aI3
aI2
aI1
aI2
aI9
aI7
aI0
aI2
aI1
aI3
aI1
aI2
aI1
aI5
aI3
aI9
aI2
aI0
aI3
aI1
aI1
aI2
aI2
aI0
aI7
aI1
aI1
aI3
aI1
aI13
aI2
aI1
aI1
aI10
aI2
aI0
aI3
aI1
aI0
aI2
aI4
aI0
aI1
aI2
aI1
aI3
aI1
aI1
aI1
aI2
aI4
aI2
aI2
aI2
aI9
aI0
aI2
aI0
aI2
aI1
aI1
aI3
aI1
aI1
aI1
aI1
aI2
aI1
aI0
aI1
aI2
aI1
aI2
aI0
aI0
aI1
aI0
aI2
aI1
aI1
aI0
aI1
aI0
aI2
aI2
aI2
aI1
aI6
aI1
aI1
aI1
aI7
aI1
aI1
aI1
aI2
aI3
aI2
aI1
aI2
aI4
aI1
aI2
aI2
aI4
aI2
aI5
aI1
aI5
aI1
aI2
aI0
aI1
aI2
aI5
aI1
aI2
aI1
aI1
aI1
aI3
aI1
aI0
aI1
aI6
aI4
aI1
aI1
aI1
aI1
aI2
aI4
aI2
aI2
aI1
aI2
aI0
aI0
aI1
aI2
aI3
aI1
aI1
aI1
aI1
aI1
aI2
aI2
aI1
aI1
aI1
aI2
aI1
aI2
aI1
aI2
aI0
aI1
aI1
aI1
aI0
aI0
aI3
aI0
aI1
aI14
aI1
aI1
aI1
aI0
aI1
aI1
aI1
aI2
aI1
aI1
aI4
aI1
aI2
aI1
aI1
aI2
aI0
aI0
aI1
aI1
aI1
aI2
aI2
aI6
aI2
aI1
aI0
aI2
aI3
aI2
aI1
aI1
aI2
aI2
aI2
aI0
aI0
aI1
aI1
aI2
aI1
aI0
aI1
aI1
aI1
aI1
aI1
aI1
aI0
aI2
aI0
aI0
aI1
aI0
aI1
aI1
aI4
aI1
aI3
aI2
aI1
aI2
aI1
aI3
aI3
aI2
aI1
aI2
aI0
aI3
aI2
aI1
aI3
aI2
aI1
aI0
aI2
aI1
aI0
aI6
aI4
aI2
aI2
aI1
aI1
aI1
aI2
aI2
aI2
aI1
aI1
aI1
aI1
aI1
aI1
aI1
aI0
aI1
aI1
aI1
aI0
aI1
aI1
aI1
aI3
aI0
aI1
aI1
aI0
aI0
aI0
aI1
aI5
aI1
aI1
aI1
aI1
aI4
aI1
aI3
aI3
aI1
aI1
aI3
aI1
aI4
aI1
aI1
aI31
aI0
aI1
aI1
aI1
aI1
aI5
aI1
aI1
aI1
aI0
aI2
aI1
aI1
aI1
aI1
aI1
aI1
aI0
aI0
aI1
aI3
aI2
aI1
aI0
aI5
aI3
aI1
aI2
aI1
aI1
aI1
aI1
aI1
aI0
aI1
aI1
aI5
aI1
aI1
aI1
aI1
aI1
aI2
aI1
aI3
aI2
aI3
aI1
aI0
aI1
aI2
aI1
aI2
aI4
aI1
aI1
aI1
aI1
aI1
aI2
aI1
aI3
aI3
aI1
aI1
aI1
aI3
aI8
aI3
aI0
aI1
aI3
aI1
aI1
aI0
aI1
aI1
aI0
aI1
aI17
aI3
aI1
aI13
aI1
aI2
aI0
aI5
aI1
aI1
aI1
aI1
aI3
aI1
aI0
aI3
aI1
aI1
aI1
aI3
aI1
aI1
aI1
aI1
aI1
aI1
aI1
aI2
aI1
aI2
aI3
aI2
aI1
aI2
aI6
aI2
aI12
aI1
aI1
aI2
aI0
aI1
aI3
aI3
aI1
aI2
aI2
aI2
aI2
aI1
aI1
aI5
aI2
aI2
aI2
aI4
aI0
aI1
aI2
aI1
aI1
aI4
aI1
aI1
aI1
aI4
aI0
aI1
aI1
aI0
aI3
aI2
aI2
aI1
aI0
aI2
aI0
aI2
aI0
aI1
aI2
aI1
aI1
aI1
aI4
aI1
aI1
aI0
aI1
aI2
aI3
aI1
aI2
aI1
aI1
aI2
aI1
aI3
aI1
aI0
aI0
aI1
aI2
aI2
aI1
aI2
aI4
aI1
aI1
aI1
aI4
aI2
aI3
aI2
aI2
aI1
aI1
aI1
aI6
aI2
aI1
aI0
aI1
aI0
aI4
aI5
aI2
aI1
aI1
aI0
aI5
aI0
aI2
aI1
aI1
aI2
aI2
aI1
aI1
aI2
aI1
aI6
aI1
aI0
aI1
aI2
aI3
aI1
aI4
aI1
aI1
aI2
aI1
aI1
aI2
aI4
aI1
aI0
aI1
aI3
aI1
aI1
aI1
aI3
aI1
aI0
aI4
aI1
aI1
aI1
aI1
aI4
aI1
aI0
aI2
aI1
aI1
aI2
aI2
aI4
aI2
aI3
aI1
aI1
aI2
aI1
aI1
aI0
aI1
aI5
aI1
aI1
aI3
aI3
aI1
aI1
aI1
aI1
aI1
aI6
aI4
aI0
aI6
aI1
aI5
aI0
aI1
aI24
aI0
aI2
aI2
aI1
aI2
aI6
aI0
aI1
aI0
aI0
aI2
aI0
aI2
aI1
aI1
aI1
aI0
aI3
aI2
aI0
aI1
aI3
aI2
aI7
aI3
aI1
aI0
aI1
aI1
aI1
aI1
aI4
aI1
aI1
aI0
aI2
aI2
aI1
aI1
aI1
aI1
aI1
aI3
aI1
aI5
aI2
aI2
aI1
aI2
aI5
aI1
aI1
aI0
aI6
aI3
aI0
aI1
aI1
aI1
aI2
aI1
aI0
aI1
aI1
aI1
aI1
aI1
aI1
aI1
aI1
aI1
aI1
aI1
aI1
aI1
aI2
aI1
aI1
aI1
aI1
aI2
aI2
aI0
aI1
aI2
aI0
aI2
aI9
aI2
aI2
aI2
aI1
aI8
aI1
aI2
aI0
aI2
aI2
aI3
aI2
aI1
aI0
aI1
aI1
aI5
aI0
aI1
aI0
aI1
aI1
aI1
aI1
aI1
aI0
aI2
aI4
aI0
aI1
aI1
aI0
aI6
aI4
aI1
aI1
aI1
aI2
aI1
aI2
aI0
aI0
aI1
aI2
aI1
aI1
aI2
aI1
aI1
aI2
aI3
aI1
aI2
aI1
aI0
aI1
aI1
aI2
aI0
aI1
aI2
aI1
aI1
aI0
aI3
aI2
aI1
aI3
aI1
aI4
aI2
aI1
aI1
aI2
aI1
aI4
aI1
aI1
aI1
aI1
aI1
aI1
aI1
aI1
aI1
aI5
aI0
aI1
aI1
aI1
aI3
aI0
aI1
aI0
aI8
aI2
aI1
aI1
aI1
aI2
aI2
aI3
aI2
aI2
aI1
aI2
aI2
aI3
aI2
aI2
aI1
aI2
aI1
aI0
aI1
aI1
aI1
aI0
aI1
aI2
aI1
aI7
aI3
aI1
aI1
aI1
aI2
aI3
aI0
aI1
aI1
aI0
aI6
aI0
aI2
aI1
aI1
aI1
aI1
aI0
aI7
aI0
aI1
aI1
aI4
aI1
aI1
aI3
aI2
aI2
aI1
aI0
aI4
aI0
aI1
aI2
aI0
aI0
aI2
aI1
aI7
aI1
aI1
aI1
aI1
aI1
aI1
aI2
aI1
aI0
aI1
aI3
aI1
aI1
aI2
aI1
aI1
aI14
aI3
aI1
aI1
aI6
aI1
aI2
aI2
aI0
aI4
aI1
aI1
aI1
aI5
aI1
aI1
aI2
aI1
aI1
aI8
aI1
aI1
aI1
aI3
aI2
aI2
aI1
aI1
aI6
aI4
aI2
aI1
aI0
aI2
aI1
aI1
aI2
aI1
aI1
aI1
aI10
aI1
aI2
aI2
aI3
aI2
aI1
aI1
aI0
aI2
aI3
aI0
aI0
aI5
aI1
aI1
aI0
aI2
aI1
aI2
aI1
aI3
aI12
aI1
aI2
aI1
aI2
aI6
aI6
aI1
aI1
aI0
aI1
aI3
aI2
aI1
aI3
aI1
aI2
aI2
aI1
aI2
aI5
aI2
aI6
aI0
aI1
aI1
aI7
aI8
aI1
aI3
aI1
aI3
aI1
aI2
aI0
aI0
aI2
aI1
aI1
aI3
aI1
aI1
aI9
aI2
aI2
aI1
aI1
aI1
aI1
aI2
aI1
aI2
aI1
aI2
aI1
aI1
aI1
aI6
aI1
aI1
aI0
aI2
aI4
aI1
aI1
aI3
aI1
aI3
aI8
aI3
aI1
aI9
aI3
aI1
aI2
aI1
aI5
aI1
aI0
aI1
aI0
aI1
aI1
aI1
aI4
aI1
aI1
aI20
aI3
aI1
aI2
aI2
aI1
aI3
aI2
aI1
aI5
aI1
aI0
aI1
aI2
aI0
aI1
aI1
aI1
aI2
aI1
aI2
aI1
aI2
aI1
aI1
aI1
aI18
aI0
aI3
aI1
aI1
aI1
aI1
aI0
aI0
aI1
aI1
aI1
aI1
aI5
aI2
aI1
aI0
aI3
aI2
aI2
aI1
aI1
aI0
aI1
aI1
aI1
aI5
aI2
aI2
aI1
aI1
aI0
aI1
aI1
aI3
aI3
aI15
aI2
aI1
aI1
aI1
aI0
aI2
aI2
aI2
aI2
aI2
aI1
aI1
aI4
aI1
aI0
aI2
aI1
aI1
aI1
aI2
aI17
aI1
aI2
aI0
aI21
aI0
aI3
aI2
aI4
aI4
aI1
aI3
aI2
aI1
aI1
aI4
aI1
aI1
aI1
aI3
aI1
aI1
aI2
aI1
aI1
aI1
aI2
aI0
aI0
aI1
aI2
aI1
aI4
aI3
aI1
aI5
aI2
aI2
aI0
aI1
aI1
aI0
aI1
aI4
aI1
aI0
aI3
aI0
aI2
aI1
aI1
aI2
aI1
aI1
aI1
aI6
aI1
aI0
aI1
aI2
aI1
aI1
aI3
aI1
aI2
aI2
aI1
aI6
aI2
aI1
aI2
aI1
aI4
aI3
aI0
aI1
aI1
aI1
aI1
aI1
aI0
aI1
aI0
aI1
aI2
aI5
aI1
aI3
aI1
aI0
aI1
aI2
aI2
aI1
aI1
aI1
aI2
aI2
aI2
aI1
aI6
aI2
aI3
aI8
aI1
aI0
aI2
aI5
aI1
aI0
aI1
aI1
aI0
aI0
aI4
aI2
aI2
aI1
aI17
aI1
aI1
aI1
aI2
aI7
aI1
aI8
aI2
aI1
aI2
aI1
aI2
aI0
aI1
aI5
aI1
aI0
aI1
aI2
aI1
aI0
aI1
aI1
aI0
aI3
aI1
aI1
aI1
aI0
aI3
aI2
aI0
aI1
aI1
aI1
aI1
aI1
aI1
aI1
aI2
aI0
aI0
aI0
aI1
aI1
aI2
aI4
aI1
aI2
aI3
aI1
aI1
aI0
aI1
aI2
aI1
aI6
aI1
aI3
aI1
aI1
aI2
aI2
aI1
aI4
aI1
aI1
aI1
aI0
aI2
aI2
aI2
aI4
aI1
aI1
aI3
aI2
aI1
aI1
aI4
aI2
aI4
aI1
aI2
aI1
aI4
aI3
aI0
aI2
aI1
aI1
aI1
aI1
aI1
aI1
aI1
aI7
aI1
aI3
aI2
aI1
aI1
aI1
aI1
aI1
aI1
aI2
aI1
aI1
aI2
aI1
aI1
aI1
aI10
aI3
aI1
aI1
aI3
aI1
aI3
aI1
aI1
aI2
aI2
aI2
aI1
aI3
aI0
aI1
aI1
aI1
aI6
aI5
aI0
aI1
aI3
aI2
aI1
aI1
aI1
aI1
aI3
aI3
aI2
aI1
aI1
aI0
aI1
aI2
aI1
aI1
aI3
aI1
aI2
aI2
aI4
aI1
aI2
aI1
aI1
aI1
aI3
aI0
aI1
aI1
aI1
aI6
aI7
aI1
aI1
aI3
aI3
aI1
aI2
aI1
aI2
aI1
aI1
aI2
aI2
aI1
aI2
aI1
aI1
aI1
aI2
aI1
aI1
aI3
aI2
aI1
aI1
aI2
aI0
aI1
aI1
aI2
aI2
aI0
aI3
aI2
aI5
aI4
aI2
aI4
aI1
aI2
aI1
aI2
aI1
aI1
aI2
aI1
aI2
aI1
aI1
aI3
aI7
aI1
aI3
aI3
aI2
aI1
aI0
aI1
aI0
aI1
aI1
aI10
aI2
aI0
aI1
aI1
aI1
aI1
aI1
aI1
aI2
aI10
aI2
aI2
aI1
aI1
aI1
aI2
aI1
aI1
aI1
aI1
aI3
aI2
aI1
aI1
aI1
aI1
aI1
aI2
aI1
aI4
aI0
aI1
aI6
aI3
aI1
aI1
aI0
aI1
aI2
aI0
aI2
aI1
aI0
aI0
aI1
aI5
aI1
aI1
aI1
aI2
aI21
aI2
aI2
aI1
aI3
aI1
aI1
aI0
aI2
aI1
aI11
aI2
aI1
aI1
aI2
aI2
aI1
aI1
aI1
aI2
aI1
aI2
aI2
aI0
aI3
aI1
aI1
aI2
aI5
aI1
aI1
aI2
aI1
aI2
aI3
aI1
aI1
aI2
aI2
aI0
aI2
aI0
aI2
aI1
aI0
aI0
aI1
aI1
aI2
aI0
aI1
aI1
aI1
aI0
aI13
aI2
aI1
aI1
aI1
aI3
aI1
aI1
aI1
aI1
aI4
aI0
aI5
aI1
aI1
aI2
aI1
aI2
aI1
aI0
aI1
aI0
aI2
aI2
aI1
aI1
aI2
aI2
aI8
aI1
aI3
aI1
aI2
aI1
aI1
aI0
aI1
aI2
aI3
aI0
aI1
aI0
aI1
aI6
aI1
aI1
aI2
aI0
aI2
aI1
aI1
aI0
aI0
aI1
aI1
aI3
aI0
aI1
aI1
aI1
aI2
aI1
aI1
aI18
aI1
aI1
aI1
aI2
aI3
aI1
aI1
aI1
aI2
aI1
aI2
aI3
aI2
aI11
aI3
aI1
aI1
aI0
aI2
aI1
aI1
aI2
aI1
aI1
aI0
aI2
aI0
aI4
aI1
aI1
aI1
aI3
aI1
aI0
aI6
aI1
aI1
aI1
aI1
aI1
aI1
aI4
aI1
aI1
aI2
aI1
aI1
aI3
aI1
aI1
aI1
aI1
aI2
aI1
aI3
aI0
aI0
aI1
aI1
aI0
aI20
aI1
aI1
aI2
aI1
aI1
aI2
aI2
aI1
aI0
aI1
aI1
aI4
aI1
aI4
aI12
aI1
aI1
aI1
aI1
aI4
aI1
aI0
aI1
aI1
aI0
aI2
aI1
aI0
aI1
aI1
aI1
aI1
aI3
aI1
aI3
aI2
aI2
aI4
aI0
aI1
aI2
aI0
aI1
aI1
aI0
aI1
aI1
aI2
aI2
aI6
aI0
aI0
aI2
aI1
aI2
aI2
aI2
aI6
aI0
aI1
aI1
aI0
aI0
aI1
aI1
aI3
aI0
aI1
aI1
aI1
aI2
aI1
aI1
aI2
aI1
aI2
aI1
aI8
aI2
aI1
aI10
aI1
aI1
aI1
aI1
aI1
aI3
aI0
aI2
aI1
aI1
aI1
aI1
aI0
aI2
aI5
aI3
aI1
aI2
aI1
aI1
aI6
aI1
aI2
aI1
aI1
aI1
aI2
aI1
aI4
aI1
aI0
aI1
aI1
aI0
aI1
aI2
aI1
aI0
aI2
aI1
aI1
aI1
aI0
aI2
aI0
aI2
aI1
aI1
aI0
aI3
aI1
aI1
aI0
aI1
aI15
aI1
aI1
aI1
aI2
aI1
aI1
aI2
aI1
aI0
aI1
aI3
aI1
aI0
aI0
aI2
aI1
aI1
aI0
aI10
aI31
aI1
aI1
aI1
aI1
aI4
aI0
aI1
aI1
aI1
aI3
aI1
aI1
aI6
aI1
aI1
aI3
aI3
aI2
aI0
aI2
aI2
aI1
aI0
aI2
aI7
aI1
aI1
aI2
aI1
aI1
aI3
aI1
aI1
aI0
aI2
aI1
aI0
aI1
aI1
aI4
aI2
aI3
aI1
aI3
aI4
aI3
aI0
aI1
aI1
aI2
aI0
aI3
aI0
aI1
aI3
aI4
aI2
aI2
aI0
aI2
aI26
aI10
aI1
aI1
aI1
aI1
aI2
aI2
aI1
aI2
aI4
aI4
aI1
aI7
aI1
aI3
aI1
aI2
aI2
aI5
aI2
aI2
aI2
aI2
aI1
aI1
aI3
aI2
aI2
aI3
aI0
aI1
aI1
aI1
aI2
aI2
aI2
aI1
aI1
aI2
aI0
aI0
aI2
aI0
aI1
aI2
aI1
aI1
aI1
aI1
aI0
aI1
aI1
aI17
aI1
aI1
aI1
aI1
aI1
aI1
aI0
aI3
aI1
aI2
aI1
aI1
aI1
aI4
aI1
aI0
aI1
aI1
aI3
aI0
aI1
aI5
aI2
aI1
aI1
aI4
aI9
aI1
aI2
aI1
aI1
aI3
aI1
aI2
aI1
aI2
aI3
aI1
aI1
aI2
aI0
aI1
aI1
aI1
aI0
aI1
aI1
aI2
aI8
aI3
aI0
aI1
aI1
aI1
aI3
aI1
aI1
aI1
aI1
aI1
aI0
aI1
aI1
aI3
aI1
aI1
aI2
aI2
aI2
aI3
aI2
aI1
aI0
aI8
aI4
aI1
aI1
aI0
aI1
aI1
aI1
aI1
aI0
aI0
aI1
aI2
aI2
aI4
aI2
aI1
aI1
aI2
aI2
aI1
aI0
aI3
aI3
aI2
aI1
aI0
aI3
aI1
aI1
aI1
aI1
aI7
aI1
aI3
aI1
aI1
aI3
aI1
aI2
aI0
aI4
aI2
aI1
aI1
aI2
aI1
aI1
aI2
aI0
aI3
aI0
aI1
aI3
aI0
aI2
aI1
aI2
aI0
aI0
aI0
aI1
aI1
aI1
aI1
aI1
aI1
aI2
aI7
aI2
aI1
aI3
aI0
aI15
aI2
aI1
aI2
aI1
aI3
aI5
aI3
aI3
aI2
aI1
aI1
aI2
aI0
aI1
aI1
aI0
aI1
aI2
aI2
aI2
aI1
aI2
aI3
aI2
aI0
aI2
aI1
aI0
aI3
aI3
aI1
aI0
aI1
aI0
aI4
aI4
aI2
aI2
aI0
aI2
aI0
aI1
aI2
aI1
aI2
aI5
aI2
aI0
aI1
aI1
aI5
aI2
aI1
aI1
aI3
aI5
aI1
aI2
aI1
aI1
aI1
aI1
aI1
aI0
aI1
aI1
aI0
aI1
aI3
aI1
aI1
aI2
aI2
aI2
aI1
aI0
aI1
aI1
aI8
aI1
aI1
aI1
aI0
aI3
aI2
aI1
aI2
aI2
aI1
aI1
aI1
aI2
aI0
aI2
aI4
aI2
aI2
aI1
aI2
aI1
aI1
aI1
aI3
aI3
aI2
aI1
aI1
aI2
aI1
aI2
aI1
aI2
aI1
aI1
aI1
aI2
aI1
aI1
aI2
aI2
aI2
aI1
aI5
aI1
aI2
aI1
aI1
aI3
aI3
aI5
aI1
aI2
aI1
aI3
aI0
aI2
aI0
aI2
aI2
aI1
aI2
aI1
aI1
aI0
aI0
aI2
aI0
aI2
aI2
aI0
aI1
aI1
aI0
aI1
aI0
aI1
aI2
aI1
aI1
aI1
aI1
aI0
aI2
aI1
aI1
aI2
aI2
aI2
aI1
aI2
aI1
aI2
aI3
aI1
aI2
aI2
aI3
aI1
aI2
aI19
aI5
aI1
aI1
aI2
aI1
aI3
aI1
aI1
aI0
aI1
aI1
aI1
aI1
aI3
aI2
aI3
aI1
aI0
aI1
aI1
aI2
aI2
aI3
aI3
aI0
aI2
aI2
aI1
aI1
aI1
aI0
aI1
aI0
aI9
aI2
aI0
aI0
aI1
aI1
aI3
aI2
aI0
aI1
aI1
aI2
aI2
aI0
aI1
aI1
aI1
aI1
aI0
aI3
aI1
aI2
aI1
aI1
aI1
aI2
aI1
aI9
aI1
aI1
aI2
aI1
aI2
aI2
aI1
aI2
aI3
aI4
aI4
aI1
aI1
aI1
aI0
aI0
aI2
aI9
aI0
aI3
aI1
aI1
aI1
aI3
aI5
aI1
aI5
aI1
aI2
aI1
aI4
aI1
aI2
aI1
aI0
aI2
aI2
aI1
aI1
aI3
aI3
aI2
aI1
aI1
aI1
aI0
aI1
aI9
aI1
aI2
aI1
aI1
aI0
aI2
aI2
aI2
aI2
aI1
aI1
aI1
aI2
aI1
aI1
aI1
aI1
aI3
aI1
aI1
aI3
aI3
aI0
aI1
aI1
aI2
aI1
aI1
aI5
aI3
aI1
aI4
aI1
aI1
aI0
aI2
aI0
aI1
aI3
aI2
aI2
aI1
aI2
aI1
aI9
aI1
aI1
aI1
aI2
aI0
aI1
aI0
aI2
aI2
aI1
aI0
aI1
aI6
aI3
aI1
aI2
aI1
aI1
aI2
aI1
aI1
aI1
aI1
aI4
aI2
aI1
aI1
aI1
aI2
aI1
aI1
aI1
aI1
aI0
aI1
aI0
aI1
aI0
aI1
aI1
aI5
aI2
aI0
aI2
aI1
aI4
aI0
aI1
aI2
aI1
aI6
aI2
aI1
aI3
aI2
aI1
aI0
aI2
aI1
aI2
aI1
aI1
aI1
aI0
aI4
aI1
aI1
aI1
aI4
aI0
aI1
aI1
aI1
aI1
aI1
aI1
aI1
aI0
aI1
aI2
aI1
aI1
aI1
aI0
aI0
aI1
aI1
aI1
aI1
aI1
aI1
aI2
aI2
aI0
aI2
aI4
aI1
aI2
aI1
aI3
aI1
aI2
aI1
aI1
aI1
aI1
aI1
aI0
aI1
aI1
aI45
aI1
aI0
aI3
aI1
aI2
aI1
aI1
aI1
aI1
aI1
aI1
aI1
aI1
aI1
aI3
aI4
aI2
aI1
aI1
aI3
aI1
aI4
aI1
aI9
aI2
aI0
aI1
aI2
aI2
aI1
aI2
aI1
aI2
aI2
aI1
aI2
aI1
aI0
aI1
aI2
aI2
aI1
aI2
aI6
aI1
aI3
aI11
aI1
aI1
aI1
aI2
aI0
aI1
aI1
aI2
aI6
aI1
aI4
aI0
aI0
aI0
aI0
aI2
aI1
aI1
aI3
aI1
aI1
aI1
aI0
aI1
aI1
aI1
aI0
aI1
aI1
aI1
aI4
aI0
aI1
aI0
aI1
aI1
aI0
aI1
aI1
aI1
aI1
aI1
aI1
aI0
aI5
aI1
aI1
aI3
aI2
aI1
aI2
aI2
aI2
aI1
aI1
aI1
aI2
aI1
aI0
aI1
aI1
aI0
aI1
aI1
aI2
aI0
aI1
aI1
aI0
aI11
aI1
aI12
aI1
aI1
aI1
aI0
aI1
aI1
aI0
aI1
aI2
aI3
aI1
aI1
aI0
aI0
aI3
aI2
aI3
aI2
aI1
aI0
aI0
aI1
aI1
aI1
aI1
aI1
aI2
aI4
aI1
aI22
aI2
aI1
aI1
aI0
aI0
aI3
aI2
aI0
aI1
aI5
aI3
aI2
aI1
aI2
aI4
aI1
aI1
aI1
aI3
aI0
aI0
aI0
aI1
aI1
aI1
aI1
aI2
aI0
aI1
aI1
aI0
aI1
aI1
aI2
aI1
aI1
aI1
aI0
aI1
aI1
aI14
aI2
aI1
aI1
aI1
aI1
aI3
aI10
aI3
aI1
aI1
aI2
aI5
aI1
aI1
aI1
aI3
aI1
aI2
aI2
aI2
aI1
aI1
aI1
aI3
aI1
aI1
aI2
aI1
aI2
aI2
aI0
aI1
aI1
aI0
aI1
aI1
aI1
aI1
aI1
aI1
aI0
aI1
aI1
aI6
aI1
aI1
aI1
aI1
aI1
aI2
aI2
aI2
aI1
aI1
aI6
aI2
aI2
aI2
aI1
aI2
aI1
aI1
aI12
aI3
aI1
aI2
aI1
aI1
aI0
aI4
aI1
aI2
aI2
aI1
aI1
aI0
aI1
aI1
aI1
aI1
aI1
aI2
aI1
aI0
aI2
aI3
aI1
aI1
aI67
aI3
aI1
aI1
aI4
aI1
aI1
aI1
aI1
aI2
aI3
aI6
aI0
aI0
aI2
aI0
aI1
aI1
aI1
aI2
aI0
aI0
aI7
aI1
aI1
aI4
aI0
aI3
aI3
aI0
aI1
aI1
aI1
aI1
aI1
aI4
aI1
aI1
aI6
aI1
aI5
aI1
aI9
aI1
aI3
aI1
aI1
aI1
aI2
aI1
aI1
aI1
aI2
aI2
aI0
aI1
aI1
aI1
aI6
aI2
aI1
aI0
aI0
aI0
aI2
aI1
aI1
aI2
aI1
aI2
aI1
aI1
aI0
aI1
aI1
aI1
aI1
aI2
aI4
aI1
aI3
aI3
aI1
aI1
aI2
aI0
aI0
aI2
aI0
aI2
aI1
aI0
aI1
aI0
aI1
aI0
aI1
aI6
aI1
aI1
aI11
aI1
aI0
aI1
aI1
aI0
aI1
aI2
aI1
aI1
aI1
aI5
aI3
aI1
aI1
aI1
aI3
aI2
aI5
aI6
aI2
aI1
aI1
aI2
aI1
aI3
aI1
aI1
aI1
aI1
aI2
aI1
aI3
aI4
aI0
aI1
aI2
aI2
aI2
aI2
aI7
aI1
aI0
aI4
aI3
aI1
aI0
aI1
aI5
aI1
aI1
aI2
aI1
aI0
aI1
aI2
aI1
aI2
aI3
aI1
aI7
aI1
aI6
aI0
aI1
aI0
aI1
aI2
aI1
aI2
aI3
aI0
aI1
aI2
aI1
aI10
aI1
aI0
aI6
aI1
aI1
aI0
aI1
aI2
aI1
aI1
aI1
aI1
aI3
aI2
aI0
aI1
aI1
aI1
aI1
aI1
aI2
aI1
aI8
aI1
aI1
aI10
aI0
aI0
aI2
aI1
aI2
aI1
aI2
aI2
aI2
aI3
aI2
aI0
aI1
aI2
aI1
aI0
aI4
aI1
aI1
aI0
aI1
aI1
aI13
aI4
aI1
aI1
aI1
aI79
aI1
aI0
aI1
aI1
aI2
aI1
aI2
aI1
aI1
aI1
aI2
aI3
aI3
aI1
aI4
aI0
aI1
aI11
aI4
aI0
aI2
aI2
aI1
aI1
aI2
aI2
aI0
aI4
aI1
aI1
aI2
aI1
aI1
aI1
aI1
aI1
aI6
aI2
aI6
aI4
aI1
aI2
aI1
aI0
aI1
aI1
aI11
aI1
aI5
aI0
aI13
aI1
aI1
aI1
aI1
aI1
aI3
aI1
aI1
aI0
aI1
aI0
aI3
aI2
aI1
aI0
aI2
aI1
aI2
aI1
aI3
aI1
aI2
aI2
aI0
aI3
aI8
aI1
aI1
aI1
aI2
aI1
aI2
aI0
aI4
aI0
aI1
aI6
aI2
aI1
aI1
aI1
aI0
aI2
aI1
aI2
aI0
aI2
aI1
aI1
aI1
aI2
aI1
aI2
aI1
aI5
aI1
aI1
aI1
aI1
aI1
aI2
aI1
aI1
aI0
aI1
aI5
aI1
aI1
aI1
aI2
aI2
aI2
aI2
aI1
aI0
aI1
aI1
aI2
aI0
aI2
aI1
aI2
aI5
aI2
aI1
aI2
aI1
aI0
aI0
aI1
aI1
aI0
aI1
aI8
aI2
aI1
aI2
aI0
aI1
aI0
aI2
aI0
aI1
aI1
aI1
aI4
aI3
aI4
aI3
aI1
aI2
aI2
aI0
aI1
aI2
aI3
aI1
aI0
aI1
aI0
aI2
aI4
aI1
aI1
aI1
aI2
aI1
aI0
aI2
aI1
aI1
aI2
aI1
aI1
aI2
aI0
aI1
aI2
aI1
aI2
aI1
aI0
aI5
aI1
aI1
aI1
aI4
aI5
aI1
aI0
aI1
aI1
aI1
aI1
aI2
aI1
aI1
aI1
aI1
aI1
aI1
aI1
aI1
aI2
aI2
aI1
aI2
aI0
aI1
aI1
aI1
aI3
aI1
aI1
aI1
aI0
aI0
aI2
aI1
aI6
aI1
aI0
aI1
aI3
aI0
aI1
aI1
aI1
aI1
aI2
aI1
aI2
aI0
aI2
aI3
aI2
aI3
aI3
aI1
aI2
aI0
aI1
aI0
aI1
aI1
aI1
aI1
aI5
aI1
aI1
aI7
aI0
aI1
aI1
aI8
aI1
aI1
aI1
aI0
aI2
aI0
aI1
aI2
aI0
aI2
aI1
aI1
aI0
aI6
aI0
aI0
aI0
aI1
aI2
aI0
aI2
aI2
aI1
aI3
aI1
aI1
aI6
aI2
aI2
aI3
aI2
aI1
aI0
aI1
aI1
aI1
aI0
aI1
aI3
aI1
aI0
aI5
aI1
aI4
aI0
aI1
aI3
aI1
aI3
aI3
aI1
aI0
aI0
aI0
aI3
aI1
aI1
aI2
aI1
aI4
aI5
aI0
aI2
aI3
aI3
aI1
aI0
aI1
aI1
aI1
aI1
aI2
aI0
aI1
aI2
aI3
aI2
aI1
aI0
aI1
aI2
aI1
aI1
aI1
aI1
aI2
aI2
aI1
aI1
aI2
aI2
aI1
aI1
aI1
aI1
aI24
aI1
aI1
aI1
aI3
aI0
aI2
aI4
aI1
aI4
aI2
aI1
aI0
aI1
aI7
aI2
aI2
aI0
aI3
aI2
aI16
aI1
aI1
aI1
aI1
aI2
aI1
aI3
aI1
aI0
aI1
aI1
aI2
aI1
aI2
aI1
aI1
aI0
aI0
aI1
aI1
aI3
aI1
aI1
aI2
aI4
aI1
aI3
aI1
aI1
aI1
aI0
aI0
aI2
aI1
aI2
aI1
aI2
aI2
aI7
aI1
aI0
aI1
aI0
aI1
aI1
aI5
aI1
aI1
aI0
aI1
aI1
aI4
aI1
aI2
aI2
aI1
aI0
aI1
aI13
aI1
aI1
aI2
aI0
aI1
aI0
aI1
aI2
aI2
aI2
aI0
aI1
aI1
aI3
aI1
aI2
aI1
aI1
aI1
aI2
aI5
aI1
aI1
aI2
aI2
aI1
aI2
aI2
aI1
aI3
aI1
aI4
aI1
aI1
aI1
aI2
aI1
aI2
aI1
aI1
aI1
aI1
aI0
aI0
aI21
aI1
aI0
aI3
aI9
aI1
aI1
aI0
aI0
aI5
aI0
aI1
aI1
aI2
aI1
aI1
aI1
aI1
aI1
aI1
aI1
aI8
aI2
aI1
aI2
aI1
aI1
aI6
aI1
aI1
aI1
aI7
aI5
aI1
aI0
aI1
aI2
aI1
aI0
aI1
aI3
aI1
aI1
aI3
aI1
aI1
aI1
aI1
aI0
aI1
aI2
aI0
aI1
aI5
aI1
aI4
aI1
aI2
aI0
aI2
aI1
aI1
aI1
aI1
aI1
aI1
aI1
aI1
aI1
aI1
aI2
aI0
aI1
aI3
aI1
aI2
aI1
aI1
aI1
aI0
aI3
aI2
aI1
aI2
aI1
aI1
aI2
aI1
aI1
aI0
aI1
aI2
aI1
aI1
aI2
aI1
aI3
aI9
aI3
aI2
aI1
aI1
aI2
aI1
aI1
aI0
aI2
aI1
aI1
aI0
aI1
aI2
aI3
aI1
aI1
aI1
aI1
aI1
aI1
aI4
aI1
aI1
aI2
aI2
aI2
aI2
aI1
aI2
aI0
aI0
aI6
aI6
aI2
aI1
aI1
aI1
aI4
aI3
aI3
aI2
aI1
aI1
aI4
aI1
aI2
aI0
aI1
aI1
aI1
aI5
aI5
aI1
aI0
aI1
aI3
aI2
aI4
aI0
aI1
aI1
aI1
aI3
aI2
aI2
aI1
aI1
aI5
aI1
aI1
aI2
aI1
aI1
aI1
aI3
aI5
aI1
aI1
aI0
aI1
aI2
aI1
aI2
aI1
aI2
aI1
aI2
aI2
aI2
aI1
aI1
aI0
aI1
aI1
aI1
aI0
aI1
aI7
aI2
aI1
aI1
aI0
aI0
aI2
aI1
aI1
aI2
aI1
aI0
aI1
aI1
aI2
aI3
aI1
aI1
aI2
aI2
aI1
aI4
aI1
aI1
aI5
aI2
aI3
aI3
aI1
aI0
aI0
aI1
aI2
aI1
aI8
aI1
aI1
aI0
aI2
aI0
aI1
aI1
aI1
aI1
aI1
aI3
aI0
aI5
aI4
aI2
aI2
aI4
aI1
aI1
aI1
aI2
aI1
aI0
aI1
aI2
aI1
aI1
aI1
aI0
aI1
aI0
aI2
aI1
aI2
aI2
aI1
aI1
aI0
aI0
aI0
aI2
aI2
aI2
aI1
aI7
aI3
aI1
aI1
aI1
aI3
aI2
aI1
aI0
aI1
aI1
aI0
aI19
aI2
aI0
aI1
aI1
aI2
aI4
aI0
aI0
aI0
aI0
aI1
aI2
aI1
aI6
aI2
aI2
aI1
aI1
aI1
aI3
aI1
aI1
aI1
aI1
aI3
aI1
aI1
aI1
aI1
aI1
aI1
aI3
aI1
aI4
aI2
aI2
aI1
aI1
aI1
aI6
aI2
aI3
aI2
aI1
aI2
aI9
aI2
aI0
aI0
aI1
aI2
aI1
aI7
aI0
aI1
aI1
aI4
aI0
aI1
aI2
aI1
aI3
aI0
aI1
aI5
aI4
aI1
aI1
aI0
aI2
aI5
aI1
aI1
aI2
aI3
aI1
aI0
aI0
aI1
aI2
aI4
aI1
aI1
aI0
aI1
aI1
aI3
aI1
aI1
aI0
aI0
aI4
aI0
aI6
aI2
aI1
aI1
aI1
aI3
aI1
aI1
aI1
aI1
aI4
aI5
aI2
aI3
aI4
aI2
aI17
aI2
aI1
aI1
aI1
aI5
aI1
aI2
aI0
aI0
aI1
aI2
aI2
aI1
aI1
aI2
aI1
aI1
aI1
aI2
aI1
aI3
aI5
aI2
aI0
aI1
aI0
aI1
aI1
aI1
aI1
aI6
aI1
aI1
aI3
aI1
aI2
aI6
aI1
aI0
aI0
aI1
aI1
aI0
aI0
aI0
aI2
aI1
aI1
aI0
aI1
aI3
aI3
aI2
aI1
aI1
aI1
aI16
aI0
aI0
aI0
aI1
aI1
aI1
aI1
aI3
aI3
aI1
aI0
aI1
aI1
aI1
aI1
aI1
aI1
aI1
aI1
aI2
aI2
aI1
aI2
aI1
aI0
aI1
aI3
aI1
aI1
aI0
aI1
aI1
aI1
aI1
aI2
aI1
aI1
aI1
aI2
aI1
aI2
aI39
aI1
aI1
aI3
aI2
aI1
aI2
aI2
aI4
aI0
aI1
aI1
aI1
aI6
aI1
aI4
aI1
aI2
aI0
aI2
aI4
aI1
aI1
aI1
aI1
aI5
aI3
aI1
aI3
aI2
aI2
aI3
aI2
aI1
aI0
aI1
aI4
aI3
aI1
aI8
aI0
aI1
aI2
aI1
aI1
aI1
aI3
aI3
aI1
aI1
aI1
aI1
aI4
aI0
aI2
aI1
aI1
aI1
aI1
aI2
aI0
aI1
aI4
aI2
aI3
aI0
aI1
aI1
aI1
aI1
aI1
aI1
aI3
aI1
aI1
aI2
aI1
aI1
aI3
aI2
aI8
aI1
aI1
aI1
aI2
aI1
aI5
aI1
aI0
aI1
aI8
aI1
aI2
aI8
aI1
aI2
aI2
aI1
aI1
aI4
aI1
aI1
aI1
aI4
aI1
aI2
aI1
aI1
aI4
aI1
aI2
aI4
aI2
aI1
aI0
aI1
aI2
aI2
aI2
aI2
aI1
aI1
aI1
aI1
aI1
aI2
aI2
aI1
aI2
aI1
aI0
aI0
aI1
aI1
aI1
aI6
aI1
aI7
aI1
aI1
aI1
aI0
aI2
aI1
aI1
aI1
aI0
aI1
aI2
aI1
aI3
aI3
aI3
aI3
aI1
aI0
aI2
aI1
aI1
aI3
aI4
aI2
aI0
aI2
aI1
aI1
aI2
aI2
aI0
aI0
aI1
aI1
aI0
aI2
aI1
aI3
aI2
aI1
aI2
aI1
aI2
aI1
aI1
aI1
aI1
aI2
aI1
aI1
aI1
aI3
aI1
aI2
aI0
aI1
aI35
aI1
aI0
aI1
aI2
aI2
aI2
aI0
aI1
aI1
aI4
aI1
aI1
aI9
aI2
aI1
aI2
aI2
aI1
aI2
aI1
aI3
aI2
aI1
aI6
aI1
aI1
aI2
aI1
aI0
aI2
aI4
aI1
aI1
aI2
aI1
aI1
aI3
aI0
aI1
aI1
aI1
aI1
aI1
aI1
aI2
aI1
aI5
aI1
aI1
aI0
aI1
aI1
aI1
aI1
aI2
aI1
aI1
aI0
aI1
aI3
aI0
aI1
aI1
aI1
aI1
aI1
aI0
aI1
aI1
aI0
aI1
aI1
aI1
aI1
aI1
aI1
aI2
aI1
aI4
aI1
aI0
aI0
aI3
aI1
aI3
aI5
aI2
aI1
aI1
aI8
aI1
aI4
aI1
aI3
aI0
aI1
aI2
aI1
aI1
aI4
aI1
aI1
aI10
aI1
aI3
aI1
aI1
aI1
aI3
aI1
aI1
aI1
aI1
aI3
aI2
aI5
aI2
aI2
aI1
aI1
aI2
aI1
aI1
aI1
aI1
aI1
aI1
aI0
aI1
aI0
aI4
aI2
aI0
aI1
aI2
aI8
aI1
aI1
aI0
aI1
aI2
aI2
aI0
aI4
aI4
aI0
aI1
aI1
aI1
aI1
aI0
aI1
aI2
aI1
aI2
aI1
aI5
aI5
aI1
aI1
aI0
aI2
aI1
aI0
aI0
aI2
aI2
aI1
aI0
aI2
aI0
aI1
aI2
aI3
aI1
aI0
aI1
aI0
aI3
aI1
aI2
aI1
aI2
aI4
aI2
aI1
aI1
aI1
aI6
aI1
aI2
aI0
aI3
aI1
aI2
aI3
aI7
aI1
aI1
aI2
aI2
aI1
aI1
aI2
aI1
aI6
aI2
aI1
aI0
aI2
aI1
aI1
aI1
aI2
aI0
aI3
aI1
aI2
aI1
aI2
aI1
aI1
aI2
aI0
aI1
aI0
aI1
aI2
aI0
aI0
aI1
aI1
aI1
aI3
aI4
aI1
aI3
aI1
aI1
aI0
aI1
aI1
aI1
aI3
aI4
aI19
aI2
aI1
aI1
aI4
aI3
aI1
aI1
aI1
aI1
aI1
aI0
aI2
aI4
aI3
aI1
aI3
aI0
aI0
aI5
aI1
aI2
aI0
aI1
aI1
aI1
aI1
aI2
aI0
aI1
aI1
aI1
aI12
aI2
aI1
aI1
aI1
aI3
aI1
aI1
aI1
aI2
aI1
aI1
aI2
aI1
aI1
aI1
aI2
aI1
aI2
aI1
aI0
aI0
aI1
aI0
aI1
aI2
aI0
aI4
aI1
aI3
aI2
aI2
aI1
aI0
aI1
aI0
aI2
aI1
aI0
aI1
aI0
aI3
aI5
aI2
aI0
aI2
aI1
aI6
aI4
aI1
aI0
aI1
aI1
aI2
aI1
aI2
aI1
aI1
aI0
aI2
aI0
aI0
aI2
aI2
aI2
aI2
aI1
aI2
aI1
aI1
aI1
aI1
aI1
aI1
aI1
aI1
aI2
aI1
aI7
aI3
aI0
aI1
aI5
aI2
aI5
aI1
aI1
aI5
aI1
aI2
aI0
aI1
aI1
aI7
aI2
aI1
aI1
aI0
aI1
aI1
aI1
aI1
aI0
aI0
aI2
aI1
aI1
aI1
aI1
aI1
aI1
aI1
aI0
aI2
aI1
aI1
aI9
aI0
aI1
aI0
aI0
aI0
aI2
aI3
aI2
aI5
aI1
aI1
aI1
aI0
aI1
aI1
aI3
aI1
aI14
aI1
aI1
aI1
aI6
aI1
aI1
aI0
aI3
aI1
aI1
aI1
aI1
aI0
aI2
aI15
aI2
aI1
aI0
aI1
aI1
aI2
aI3
aI3
aI2
aI3
aI2
aI2
aI34
aI3
aI2
aI1
aI3
aI1
aI1
aI0
aI3
aI1
aI1
aI0
aI1
aI1
aI1
aI1
aI0
aI3
aI0
aI1
aI0
aI1
aI12
aI1
aI1
aI1
aI2
aI2
aI3
aI1
aI2
aI1
aI2
aI0
aI1
aI5
aI2
aI0
aI0
aI2
aI0
aI13
aI3
aI1
aI2
aI3
aI1
aI0
aI1
aI1
aI1
aI1
aI1
aI1
aI1
aI2
aI1
aI1
aI2
aI1
aI0
aI1
aI1
aI2
aI1
aI2
aI1
aI3
aI4
aI3
aI1
aI1
aI1
aI5
aI1
aI2
aI2
aI1
aI2
aI2
aI1
aI1
aI1
aI0
aI2
aI1
aI5
aI1
aI4
aI0
aI11
aI1
aI1
aI2
aI0
aI1
aI0
aI1
aI1
aI2
aI0
aI1
aI2
aI0
aI2
aI1
aI2
aI1
aI4
aI0
aI4
aI0
aI4
aI0
aI2
aI0
aI1
aI2
aI1
aI2
aI1
aI1
aI1
aI1
aI0
aI1
aI0
aI1
aI3
aI1
aI1
aI22
aI1
aI1
aI1
aI1
aI2
aI7
aI2
aI1
aI4
aI4
aI1
aI1
aI7
aI0
aI4
aI2
aI2
aI1
aI1
aI0
aI0
aI0
aI10
aI1
aI1
aI5
aI1
aI2
aI1
aI2
aI1
aI2
aI2
aI1
aI2
aI1
aI3
aI2
aI1
aI1
aI1
aI1
aI1
aI3
aI1
aI1
aI1
aI0
aI1
aI0
aI1
aI0
aI2
aI6
aI1
aI4
aI9
aI6
aI1
aI1
aI2
aI1
aI4
aI36
aI1
aI1
aI1
aI5
aI1
aI1
aI0
aI1
aI1
aI1
aI2
aI2
aI0
aI1
aI0
aI2
aI1
aI1
aI1
aI1
aI1
aI1
aI1
aI1
aI1
aI2
aI1
aI1
aI2
aI2
aI1
aI1
aI1
aI0
aI1
aI1
aI0
aI1
aI3
aI1
aI1
aI1
aI1
aI2
aI0
aI2
aI1
aI0
aI1
aI4
aI2
aI4
aI2
aI1
aI3
aI5
aI1
aI1
aI3
aI2
aI4
aI4
aI2
aI5
aI0
aI1
aI0
aI2
aI1
aI0
aI1
aI2
aI1
aI0
aI2
aI2
aI1
aI11
aI1
aI1
aI5
aI2
aI1
aI2
aI2
aI1
aI2
aI0
aI2
aI0
aI2
aI1
aI2
aI1
aI1
aI0
aI2
aI3
aI1
aI1
aI1
aI2
aI2
aI8
aI2
aI1
aI1
aI6
aI0
aI0
aI1
aI1
aI3
aI4
aI1
aI1
aI0
aI1
aI0
aI1
aI4
aI1
aI1
aI1
aI2
aI1
aI5
aI0
aI1
aI1
aI0
aI0
aI7
aI2
aI1
aI2
aI1
aI1
aI2
aI1
aI1
aI2
aI2
aI1
aI1
aI0
aI1
aI1
aI0
aI1
aI0
aI1
aI3
aI1
aI0
aI2
aI1
aI0
aI1
aI2
aI4
aI2
aI3
aI1
aI0
aI1
aI0
aI1
aI2
aI3
aI1
aI0
aI1
aI1
aI0
aI1
aI0
aI1
aI4
aI1
aI2
aI2
aI7
aI3
aI1
aI1
aI2
aI1
aI2
aI2
aI1
aI9
aI1
aI0
aI3
aI1
aI1
aI1
aI0
aI2
aI1
aI1
aI1
aI3
aI1
aI2
aI2
aI9
aI1
aI1
aI1
aI1
aI1
aI3
aI0
aI0
aI1
aI2
aI1
aI2
aI0
aI0
aI0
aI2
aI1
aI3
aI1
aI3
aI1
aI1
aI2
aI1
aI0
aI1
aI2
aI1
aI1
aI2
aI0
aI2
aI1
aI1
aI0
aI3
aI2
aI1
aI2
aI1
aI1
aI4
aI2
aI6
aI2
aI1
aI1
aI1
aI1
aI3
aI2
aI1
aI1
aI2
aI8
aI1
aI0
aI0
aI1
aI4
aI6
aI1
aI1
aI1
aI0
aI0
aI2
aI1
aI1
aI1
aI1
aI5
aI1
aI2
aI1
aI1
aI2
aI8
aI1
aI2
aI1
aI2
aI3
aI1
aI0
aI0
aI1
aI2
aI0
aI1
aI2
aI5
aI2
aI1
aI0
aI2
aI2
aI1
aI0
aI0
aI1
aI1
aI1
aI1
aI1
aI0
aI1
aI1
aI1
aI2
aI0
aI1
aI1
aI1
aI1
aI0
aI1
aI2
aI1
aI0
aI1
aI1
aI2
aI1
aI1
aI1
aI1
aI2
aI0
aI1
aI2
aI1
aI1
aI1
aI15
aI6
aI2
aI0
aI0
aI3
aI2
aI5
aI2
aI1
aI1
aI1
aI1
aI1
aI1
aI3
aI2
aI1
aI1
aI1
aI2
aI5
aI1
aI2
aI1
aI1
aI2
aI1
aI2
aI1
aI1
aI1
aI1
aI1
aI0
aI1
aI0
aI1
aI1
aI1
aI1
aI4
aI0
aI1
aI2
aI1
aI4
aI1
aI3
aI1
aI0
aI2
aI1
aI1
aI1
aI1
aI1
aI2
aI1
aI1
aI0
aI1
aI0
aI3
aI1
aI2
aI5
aI4
aI1
aI1
aI4
aI3
aI9
aI1
aI2
aI0
aI0
aI0
aI1
aI1
aI0
aI6
aI0
aI4
aI2
aI1
aI0
aI1
aI2
aI2
aI0
aI10
aI0
aI3
aI2
aI4
aI1
aI0
aI1
aI8
aI1
aI4
aI2
aI1
aI1
aI1
aI0
aI3
aI1
aI1
aI0
aI1
aI1
aI5
aI25
aI1
aI1
aI1
aI2
aI19
aI0
aI1
aI3
aI0
aI2
aI1
aI3
aI1
aI2
aI2
aI1
aI1
aI0
aI2
aI1
aI4
aI2
aI3
aI1
aI3
aI2
aI3
aI1
aI2
aI2
aI1
aI1
aI1
aI0
aI2
aI9
aI1
aI2
aI1
aI3
aI1
aI1
aI1
aI1
aI2
aI1
aI2
aI1
aI1
aI0
aI0
aI1
aI2
aI1
aI1
aI2
aI3
aI1
aI2
aI1
aI2
aI1
aI0
aI2
aI1
aI1
aI4
aI1
aI2
aI1
aI2
aI4
aI1
aI1
aI2
aI1
aI3
aI0
aI1
aI4
aI1
aI2
aI1
aI1
aI1
aI3
aI2
aI1
aI3
aI3
aI2
aI1
aI1
aI2
aI3
aI0
aI1
aI1
aI2
aI1
aI1
aI0
aI0
aI1
aI1
aI2
aI2
aI3
aI0
aI1
aI1
aI1
aI2
aI1
aI2
aI1
aI0
aI1
aI1
aI6
aI1
aI1
aI3
aI1
aI0
aI3
aI1
aI4
aI1
aI3
aI4
aI9
aI2
aI1
aI5
aI1
aI1
aI1
aI2
aI1
aI1
aI0
aI3
aI2
aI1
aI2
aI1
aI1
aI1
aI1
aI1
aI0
aI1
aI0
aI2
aI1
aI2
aI1
aI2
aI2
aI1
aI1
aI1
aI0
aI0
aI1
aI2
aI6
aI0
aI3
aI0
aI1
aI0
aI3
aI1
aI0
aI0
aI1
aI1
aI0
aI1
aI0
aI11
aI2
aI9
aI2
aI1
aI1
aI0
aI0
aI2
aI1
aI1
aI3
aI2
aI1
aI0
aI4
aI1
aI2
aI3
aI1
aI1
aI3
aI1
aI1
aI1
aI2
aI1
aI3
aI3
aI4
aI2
aI1
aI6
aI3
aI2
aI5
aI1
aI1
aI2
aI0
aI2
aI1
aI1
aI0
aI0
aI0
aI1
aI0
aI0
aI0
aI1
aI1
aI1
aI9
aI2
aI2
aI3
aI0
aI2
aI1
aI1
aI1
aI2
aI0
aI2
aI20
aI0
aI1
aI3
aI1
aI3
aI1
aI0
aI1
aI1
aI1
aI0
aI1
aI1
aI2
aI1
aI6
aI1
aI2
aI2
aI3
aI1
aI1
aI27
aI1
aI1
aI1
aI8
aI1
aI1
aI1
aI6
aI0
aI1
aI4
aI5
aI1
aI2
aI2
aI0
aI1
aI2
aI1
aI2
aI2
aI0
aI2
aI1
aI1
aI1
aI1
aI2
aI7
aI1
aI3
aI1
aI2
aI2
aI1
aI2
aI0
aI35
aI0
aI1
aI1
aI0
aI3
aI2
aI2
aI2
aI4
aI0
aI1
aI0
aI2
aI1
aI1
aI2
aI0
aI1
aI0
aI2
aI1
aI1
aI3
aI2
aI4
aI1
aI3
aI2
aI3
aI0
aI4
aI0
aI2
aI1
aI1
aI2
aI2
aI2
aI1
aI5
aI1
aI2
aI6
aI1
aI1
aI2
aI2
aI2
aI1
aI1
aI2
aI1
aI2
aI0
aI1
aI7
aI1
aI0
aI1
aI3
aI0
aI1
aI1
aI1
aI1
aI2
aI0
aI1
aI1
aI2
aI2
aI0
aI1
aI2
aI2
aI2
aI2
aI1
aI1
aI2
aI1
aI1
aI3
aI1
aI1
aI1
aI0
aI1
aI8
aI1
aI1
aI1
aI1
aI6
aI1
aI2
aI5
aI1
aI1
aI1
aI1
aI0
aI3
aI1
aI2
aI1
aI1
aI2
aI0
aI2
aI1
aI1
aI1
aI1
aI3
aI4
aI0
aI4
aI1
aI3
aI3
aI2
aI0
aI2
aI4
aI1
aI0
aI1
aI1
aI0
aI2
aI3
aI1
aI1
aI1
aI1
aI1
aI1
aI1
aI1
aI2
aI1
aI1
aI1
aI0
aI0
aI1
aI1
aI1
aI2
aI1
aI1
aI1
aI0
aI1
aI22
aI1
aI3
aI1
aI1
aI1
aI0
aI1
aI1
aI3
aI1
aI1
aI2
aI1
aI1
aI1
aI2
aI1
aI1
aI0
aI1
aI2
aI1
aI1
aI2
aI1
aI1
aI1
aI2
aI1
aI2
aI2
aI1
aI0
aI2
aI0
aI4
aI0
aI2
aI2
aI29
aI2
aI2
aI2
aI1
aI1
aI1
aI1
aI0
aI2
aI3
aI3
aI1
aI1
aI1
aI10
aI3
aI1
aI0
aI2
aI3
aI1
aI0
aI1
aI3
aI6
aI1
aI2
aI1
aI2
aI4
aI1
aI12
aI1
aI1
aI1
aI1
aI2
aI1
aI7
aI1
aI2
aI0
aI1
aI0
aI1
aI1
aI1
aI1
aI1
aI2
aI0
aI12
aI3
aI0
aI1
aI1
aI6
aI1
aI1
aI1
aI4
aI0
aI2
aI3
aI0
aI1
aI1
aI4
aI3
aI2
aI2
aI1
aI0
aI1
aI6
aI3
aI1
aI1
aI1
aI1
aI2
aI1
aI0
aI3
aI1
aI1
aI0
aI0
aI2
aI1
aI1
aI1
aI1
aI2
aI1
aI0
aI1
aI1
aI1
aI1
aI2
aI20
aI1
aI5
aI0
aI1
aI1
aI2
aI1
aI0
aI1
aI2
aI0
aI11
aI1
aI1
aI1
aI3
aI1
aI1
aI1
aI1
aI1
aI1
aI2
aI7
aI0
aI4
aI1
aI1
aI1
aI1
aI1
aI1
aI2
aI2
aI1
aI1
aI2
aI1
aI1
aI2
aI0
aI0
aI1
aI0
aI2
aI4
aI1
aI0
aI1
aI1
aI1
aI1
aI4
aI0
aI5
aI2
aI1
aI1
aI3
aI3
aI3
aI2
aI1
aI1
aI1
aI2
aI2
aI1
aI1
aI1
aI1
aI3
aI1
aI1
aI1
aI1
aI3
aI1
aI2
aI2
aI1
aI2
aI1
aI2
aI2
aI1
aI3
aI1
aI2
aI1
aI2
aI0
aI1
aI4
aI1
aI1
aI3
aI2
aI1
aI3
aI1
aI1
aI0
aI1
aI0
aI3
aI1
aI0
aI2
aI2
aI1
aI2
aI4
aI1
aI0
aI1
aI5
aI1
aI1
aI1
aI0
aI2
aI3
aI2
aI1
aI1
aI2
aI1
aI1
aI6
aI1
aI2
aI1
aI1
aI0
aI4
aI0
aI0
aI1
aI2
aI1
aI0
aI1
aI1
aI2
aI1
aI2
aI4
aI0
aI2
aI1
aI3
aI2
aI2
aI1
aI3
aI2
aI0
aI4
aI0
aI0
aI2
aI1
aI1
aI0
aI3
aI1
aI2
aI5
aI3
aI2
aI5
aI3
aI1
aI2
aI1
aI1
aI2
aI1
aI0
aI1
aI1
aI1
aI2
aI1
aI2
aI5
aI2
aI0
aI2
aI1
aI2
aI1
aI1
aI1
aI5
aI1
aI1
aI0
aI1
aI1
aI3
aI0
aI1
aI1
aI0
aI5
aI1
aI3
aI1
aI0
aI3
aI1
aI2
aI5
aI19
aI1
aI0
aI1
aI1
aI3
aI2
aI2
aI2
aI0
aI0
aI1
aI0
aI8
aI2
aI0
aI1
aI2
aI0
aI6
aI2
aI1
aI2
aI1
aI1
aI0
aI1
aI1
aI5
aI2
aI0
aI3
aI1
aI0
aI1
aI2
aI0
aI1
aI13
aI2
aI2
aI1
aI1
aI2
aI10
aI1
aI2
aI0
aI1
aI0
aI1
aI0
aI1
aI1
aI1
aI7
aI0
aI6
aI1
aI1
aI3
aI7
aI1
aI1
aI0
aI2
aI1
aI1
aI2
aI3
aI1
aI1
aI3
aI3
aI1
aI2
aI1
aI0
aI1
aI1
aI16
aI1
aI2
aI2
aI1
aI1
aI0
aI3
aI1
aI1
aI1
aI1
aI2
aI2
aI1
aI1
aI1
aI1
aI3
aI2
aI0
aI2
aI2
aI1
aI1
aI1
aI1
aI1
aI1
aI3
aI5
aI2
aI1
aI2
aI8
aI2
aI4
aI0
aI2
aI1
aI2
aI0
aI6
aI0
aI0
aI1
aI0
aI2
aI0
aI1
aI3
aI3
aI1
aI0
aI1
aI0
aI1
aI1
aI0
aI1
aI2
aI6
aI1
aI1
aI4
aI2
aI2
aI2
aI3
aI1
aI3
aI1
aI0
aI0
aI1
aI5
aI2
aI2
aI1
aI2
aI1
aI0
aI2
aI1
aI5
aI1
aI2
aI3
aI0
aI10
aI1
aI0
aI1
aI1
aI0
aI1
aI1
aI1
aI1
aI1
aI1
aI3
aI1
aI2
aI3
aI1
aI1
aI2
aI1
aI2
aI0
aI2
aI2
aI1
aI2
aI1
aI7
aI0
aI2
aI0
aI1
aI6
aI0
aI1
aI6
aI1
aI2
aI2
aI1
aI1
aI0
aI0
aI1
aI1
aI0
aI1
aI1
aI1
aI0
aI0
aI1
aI1
aI2
aI4
aI0
aI0
aI1
aI0
aI1
aI2
aI1
aI5
aI3
aI2
aI1
aI2
aI3
aI1
aI1
aI2
aI1
aI19
aI1
aI1
aI1
aI1
aI2
aI1
aI1
aI1
aI1
aI1
aI4
aI1
aI3
aI0
aI1
aI2
aI2
aI0
aI2
aI1
aI1
aI7
aI0
aI1
aI8
aI1
aI0
aI2
aI3
aI1
aI1
aI2
aI2
aI2
aI1
aI1
aI1
aI1
aI6
aI1
aI1
aI1
aI1
aI1
aI1
aI2
aI0
aI3
aI2
aI0
aI1
aI1
aI1
aI2
aI1
aI5
aI1
aI1
aI1
aI1
aI2
aI0
aI1
aI1
aI7
aI1
aI2
aI2
aI0
aI2
aI1
aI0
aI1
aI1
aI2
aI1
aI0
aI1
aI1
aI6
aI1
aI1
aI2
aI2
aI2
aI0
aI1
aI1
aI1
aI0
aI1
aI1
aI1
aI0
aI0
aI1
aI1
aI2
aI1
aI13
aI1
aI1
aI1
aI1
aI1
aI2
aI0
aI2
aI1
aI2
aI1
aI1
aI1
aI1
aI0
aI2
aI2
aI1
aI3
aI2
aI1
aI1
aI1
aI2
aI1
aI0
aI1
aI1
aI1
aI0
aI0
aI4
aI1
aI3
aI0
aI1
aI1
aI0
aI2
aI2
aI3
aI2
aI2
aI0
aI2
aI1
aI1
aI3
aI1
aI2
aI1
aI1
aI2
aI0
aI1
aI4
aI3
aI1
aI1
aI0
aI2
aI2
aI2
aI1
aI2
aI1
aI1
aI1
aI2
aI2
aI2
aI1
aI2
aI1
aI2
aI0
aI1
aI1
aI1
aI1
aI1
aI0
aI0
aI1
aI3
aI0
aI1
aI1
aI2
aI1
aI1
aI1
aI1
aI0
aI1
aI2
aI1
aI1
aI2
aI1
aI1
aI1
aI1
aI2
aI2
aI0
aI3
aI1
aI1
aI0
aI4
aI1
aI1
aI0
aI0
aI2
aI2
aI1
aI1
aI2
aI1
aI0
aI1
aI1
aI0
aI2
aI2
aI2
aI1
aI3
aI0
aI2
aI0
aI1
aI7
aI1
aI1
aI1
aI12
aI1
aI1
aI0
aI2
aI1
aI0
aI1
aI1
aI1
aI0
aI4
aI23
aI8
aI1
aI1
aI1
aI2
aI3
aI2
aI2
aI0
aI1
aI1
aI0
aI1
aI0
aI1
aI2
aI1
aI1
aI0
aI2
aI6
aI0
aI1
aI1
aI1
aI2
aI4
aI4
aI1
aI3
aI3
aI2
aI0
aI1
aI2
aI1
aI0
aI4
aI0
aI1
aI1
aI2
aI1
aI1
aI1
aI1
aI2
aI1
aI3
aI1
aI2
aI0
aI4
aI2
aI2
aI6
aI4
aI0
aI1
aI1
aI0
aI1
aI1
aI4
aI2
aI3
aI1
aI1
aI1
aI1
aI1
aI4
aI1
aI1
aI9
aI1
aI2
aI1
aI2
aI2
aI3
aI3
aI1
aI1
aI7
aI1
aI1
aI2
aI0
aI2
aI2
aI6
aI6
aI1
aI6
aI0
aI1
aI1
aI2
aI2
aI1
aI1
aI0
aI1
aI1
aI0
aI6
aI1
aI1
aI2
aI2
aI3
aI2
aI3
aI2
aI1
aI1
aI1
aI1
aI1
aI1
aI1
aI1
aI0
aI1
aI1
aI1
aI1
aI1
aI0
aI3
aI4
aI1
aI3
aI1
aI2
aI0
aI1
aI1
aI0
aI4
aI1
aI1
aI1
aI1
aI1
aI1
aI1
aI9
aI0
aI4
aI0
aI1
aI2
aI3
aI0
aI1
aI0
aI0
aI1
aI6
aI0
aI1
aI1
aI2
aI0
aI1
aI2
aI3
aI2
aI1
aI2
aI3
aI0
aI4
aI1
aI0
aI3
aI1
aI1
aI2
aI2
aI4
aI1
aI2
aI1
aI5
aI3
aI2
aI0
aI1
aI2
aI1
aI1
aI3
aI2
aI1
aI2
aI1
aI1
aI5
aI1
aI0
aI3
aI1
aI1
aI1
aI16
aI1
aI1
aI1
aI1
aI1
aI2
aI1
aI0
aI0
aI2
aI1
aI1
aI1
aI1
aI0
aI2
aI1
aI2
aI6
aI5
aI2
aI0
aI0
aI1
aI2
aI2
aI3
aI1
aI1
aI2
aI2
aI2
aI1
aI1
aI2
aI2
aI2
aI1
aI2
aI1
aI1
aI1
aI1
aI0
aI3
aI2
aI1
aI1
aI0
aI1
aI1
aI2
aI3
aI2
aI1
aI1
aI3
aI1
aI1
aI0
aI1
aI8
aI3
aI3
aI0
aI0
aI1
aI5
aI2
aI3
aI1
aI1
aI2
aI1
aI1
aI1
aI1
aI1
aI1
aI8
aI1
aI1
aI0
aI2
aI2
aI1
aI2
aI1
aI1
aI1
aI2
aI1
aI2
aI1
aI2
aI0
aI1
aI1
aI1
aI1
aI1
aI0
aI2
aI4
aI1
aI0
aI0
aI0
aI3
aI1
aI4
aI4
aI1
aI2
aI0
aI2
aI1
aI2
aI2
aI1
aI4
aI2
aI2
aI0
aI1
aI1
aI1
aI2
aI1
aI0
aI0
aI0
aI1
aI1
aI0
aI0
aI1
aI1
aI0
aI1
aI2
aI2
aI2
aI0
aI2
aI1
aI0
aI1
aI4
aI0
aI2
aI2
aI1
aI1
aI1
aI9
aI1
aI1
aI3
aI0
aI1
aI1
aI0
aI2
aI1
aI2
aI14
aI1
aI1
aI1
aI1
aI1
aI1
aI1
aI1
aI2
aI2
aI1
aI0
aI2
aI2
aI12
aI2
aI2
aI1
aI3
aI3
aI1
aI3
aI1
aI1
aI2
aI1
aI1
aI2
aI3
aI3
aI1
aI3
aI1
aI1
aI1
aI1
aI1
aI1
aI1
aI3
aI2
aI2
aI5
aI3
aI2
aI0
aI4
aI3
aI5
aI0
aI2
aI1
aI3
aI3
aI0
aI2
aI1
aI1
aI2
aI1
aI3
aI3
aI2
aI2
aI1
aI1
aI1
aI2
aI1
aI0
aI1
aI1
aI4
aI0
aI0
aI1
aI5
aI4
aI2
aI1
aI1
aI1
aI1
aI1
aI1
aI1
aI2
aI1
aI1
aI1
aI2
aI2
aI0
aI3
aI7
aI1
aI1
aI1
aI1
aI1
aI0
aI3
aI2
aI0
aI2
aI1
aI1
aI0
aI2
aI1
aI2
aI0
aI2
aI2
aI1
aI0
aI2
aI6
aI4
aI1
aI1
aI1
aI2
aI1
aI3
aI1
aI3
aI0
aI1
aI1
aI1
aI1
aI1
aI0
aI3
aI0
aI0
aI2
aI2
aI1
aI1
aI1
aI0
aI3
aI3
aI7
aI4
aI1
aI1
aI8
aI0
aI1
aI2
aI1
aI1
aI3
aI3
aI3
aI1
aI1
aI1
aI4
aI1
aI5
aI1
aI1
aI1
aI11
aI0
aI1
aI3
aI1
aI1
aI1
aI1
aI1
aI0
aI1
aI1
aI1
aI1
aI1
aI1
aI1
aI2
aI1
aI2
aI1
aI1
aI5
aI1
aI0
aI2
aI1
aI1
aI1
aI1
aI4
aI1
aI4
aI0
aI4
aI1
aI3
aI4
aI1
aI1
aI2
aI0
aI1
aI1
aI2
aI0
aI1
aI1
aI0
aI3
aI3
aI1
aI1
aI1
aI1
aI1
aI2
aI2
aI1
aI2
aI2
aI2
aI0
aI3
aI3
aI0
aI2
aI1
aI2
aI0
aI1
aI1
aI1
aI0
aI0
aI1
aI3
aI2
aI1
aI0
aI2
aI1
aI2
aI1
aI1
aI1
aI1
aI1
aI1
aI1
aI1
aI1
aI1
aI1
aI4
aI0
aI2
aI1
aI2
aI1
aI1
aI2
aI2
aI2
aI0
aI1
aI9
aI3
aI3
aI2
aI1
aI1
aI1
aI2
aI2
aI2
aI2
aI1
aI1
aI0
aI3
aI3
aI2
aI1
aI3
aI1
aI1
aI1
aI1
aI1
aI1
aI0
aI2
aI5
aI1
aI1
aI3
aI1
aI2
aI58
aI0
aI1
aI3
aI7
aI2
aI1
aI6
aI1
aI3
aI0
aI1
aI2
aI1
aI2
aI2
aI4
aI7
aI2
aI0
aI0
aI2
aI3
aI1
aI1
aI1
aI0
aI3
aI2
aI12
aI4
aI8
aI1
aI2
aI1
aI3
aI1
aI3
aI1
aI1
aI2
aI1
aI3
aI0
aI2
aI1
aI4
aI0
aI1
aI7
aI1
aI1
aI2
aI1
aI1
aI1
aI2
aI1
aI1
aI1
aI1
aI1
aI0
aI1
aI2
aI2
aI1
aI4
aI1
aI1
aI1
aI3
aI1
aI1
aI3
aI1
aI3
aI1
aI1
aI1
aI1
aI2
aI1
aI1
aI2
aI1
aI0
aI4
aI1
aI0
aI1
aI3
aI1
aI1
aI1
aI1
aI1
aI1
aI1
aI0
aI0
aI2
aI1
aI1
aI1
aI1
aI0
aI1
aI1
aI1
aI5
aI1
aI1
aI2
aI1
aI2
aI1
aI2
aI2
aI17
aI1
aI1
aI2
aI0
aI1
aI2
aI1
aI0
aI1
aI1
aI0
aI2
aI1
aI1
aI2
aI1
aI3
aI1
aI0
aI2
aI1
aI2
aI1
aI1
aI1
aI3
aI1
aI4
aI1
aI2
aI2
aI0
aI0
aI3
aI1
aI1
aI1
aI1
aI1
aI1
aI1
aI1
aI1
aI3
aI2
aI1
aI1
aI1
aI2
aI1
aI1
aI1
aI0
aI15
aI1
aI1
aI1
aI1
aI1
aI6
aI1
aI1
aI5
aI3
aI1
aI1
aI0
aI1
aI1
aI1
aI0
aI1
aI6
aI1
aI1
aI1
aI0
aI0
aI1
aI5
aI1
aI2
aI1
aI1
aI2
aI2
aI2
aI0
aI0
aI1
aI3
aI4
aI4
aI0
aI1
aI1
aI2
aI3
aI2
aI2
aI1
aI2
aI2
aI2
aI1
aI0
aI12
aI1
aI5
aI1
aI2
aI1
aI1
aI1
aI2
aI2
aI3
aI1
aI1
aI2
aI5
aI1
aI1
aI1
aI1
aI1
aI0
aI0
aI2
aI1
aI3
aI0
aI2
aI4
aI0
aI1
aI1
aI1
aI3
aI2
aI0
aI3
aI11
aI1
aI2
aI1
aI4
aI1
aI1
aI1
aI0
aI2
aI4
aI1
aI2
aI1
aI1
aI3
aI1
aI0
aI1
aI0
aI1
aI1
aI2
aI6
aI1
aI2
aI3
aI1
aI3
aI2
aI0
aI1
aI0
aI2
aI4
aI1
aI0
aI0
aI0
aI1
aI1
aI0
aI1
aI2
aI1
aI3
aI0
aI2
aI1
aI3
aI1
aI1
aI1
aI1
aI7
aI3
aI1
aI1
aI1
aI1
aI2
aI2
aI1
aI4
aI1
aI4
aI3
aI1
aI1
aI6
aI0
aI1
aI3
aI0
aI1
aI1
aI0
aI0
aI1
aI2
aI1
aI1
aI3
aI0
aI1
aI3
aI1
aI8
aI0
aI4
aI2
aI0
aI1
aI1
aI1
aI1
aI1
aI0
aI1
aI1
aI2
aI2
aI1
aI1
aI0
aI1
aI1
aI1
aI1
aI1
aI1
aI0
aI2
aI1
aI0
aI3
aI2
aI2
aI0
aI1
aI2
aI1
aI2
aI0
aI3
aI0
aI1
aI0
aI3
aI2
aI1
aI1
aI1
aI1
aI1
aI1
aI5
aI8
aI2
aI1
aI1
aI1
aI2
aI3
aI0
aI1
aI3
aI1
aI2
aI0
aI14
aI2
aI1
aI2
aI4
aI1
aI0
aI1
aI1
aI1
aI5
aI1
aI3
aI1
aI2
aI2
aI3
aI1
aI3
aI1
aI1
aI9
aI3
aI1
aI1
aI1
aI0
aI1
aI0
aI2
aI1
aI2
aI1
aI1
aI1
aI0
aI2
aI5
aI1
aI1
aI1
aI2
aI1
aI1
aI0
aI1
aI1
aI1
aI3
aI1
aI2
aI3
aI1
aI0
aI1
aI1
aI1
aI2
aI6
aI1
aI1
aI1
aI1
aI2
aI1
aI0
aI1
aI1
aI1
aI1
aI0
aI5
aI2
aI1
aI2
aI2
aI1
aI3
aI4
aI1
aI0
aI1
aI4
aI1
aI1
aI1
aI0
aI1
aI1
aI2
aI1
aI5
aI1
aI1
aI0
aI1
aI1
aI1
aI1
aI0
aI1
aI1
aI0
aI1
aI1
aI2
aI1
aI3
aI1
aI1
aI2
aI2
aI3
aI1
aI1
aI1
aI1
aI1
aI4
aI0
aI1
aI3
aI0
aI1
aI2
aI1
aI1
aI1
aI0
aI1
aI1
aI1
aI2
aI8
aI1
aI2
aI1
aI1
aI4
aI1
aI1
aI0
aI1
aI1
aI1
aI1
aI1
aI1
aI3
aI2
aI1
aI1
aI2
aI9
aI2
aI5
aI2
aI4
aI0
aI3
aI1
aI2
aI3
aI1
aI1
aI2
aI2
aI2
aI1
aI1
aI0
aI1
aI1
aI1
aI7
aI1
aI1
aI0
aI1
aI5
aI0
aI17
aI2
aI1
aI1
aI1
aI2
aI1
aI1
aI1
aI7
aI2
aI1
aI2
aI1
aI3
aI0
aI2
aI0
aI1
aI1
aI0
aI9
aI6
aI1
aI3
aI2
aI2
aI1
aI2
aI3
aI2
aI2
aI1
aI1
aI1
aI1
aI2
aI4
aI1
aI0
aI4
aI0
aI1
aI2
aI4
aI2
aI3
aI1
aI1
aI0
aI2
aI1
aI1
aI1
aI1
aI2
aI1
aI1
aI1
aI2
aI2
aI1
aI1
aI2
aI1
aI1
aI2
aI1
aI0
aI2
aI1
aI1
aI1
aI1
aI4
aI6
aI1
aI1
aI1
aI1
aI1
aI3
aI2
aI3
aI0
aI0
aI1
aI1
aI1
aI1
aI2
aI1
aI1
aI1
aI0
aI1
aI3
aI1
aI2
aI4
aI1
aI3
aI0
aI2
aI0
aI15
aI2
aI5
aI1
aI0
aI2
aI3
aI1
aI5
aI0
aI1
aI1
aI1
aI3
aI1
aI4
aI2
aI12
aI0
aI2
aI3
aI1
aI2
aI1
aI1
aI1
aI0
aI2
aI1
aI6
aI2
aI1
aI3
aI1
aI1
aI1
aI3
aI1
aI1
aI2
aI1
aI1
aI0
aI2
aI8
aI6
aI0
aI1
aI1
aI1
aI1
aI2
aI1
aI6
aI4
aI1
aI1
aI1
aI2
aI2
aI0
aI1
aI2
aI1
aI3
aI1
aI1
aI1
aI0
aI1
aI1
aI3
aI15
aI1
aI2
aI5
aI1
aI0
aI1
aI0
aI1
aI0
aI1
aI5
aI1
aI1
aI1
aI2
aI1
aI6
aI1
aI2
aI2
aI1
aI2
aI1
aI1
aI2
aI1
aI2
aI1
aI14
aI1
aI1
aI0
aI1
aI3
aI1
aI6
aI1
aI1
aI2
aI1
aI1
aI0
aI1
aI0
aI1
aI1
aI2
aI2
aI1
aI0
aI2
aI1
aI1
aI3
aI1
aI0
aI1
aI2
aI1
aI1
aI2
aI1
aI1
aI2
aI2
aI1
aI0
aI0
aI1
aI1
aI11
aI2
aI2
aI6
aI2
aI0
aI1
aI1
aI1
aI1
aI1
aI1
aI2
aI0
aI1
aI1
aI1
aI3
aI1
aI1
aI1
aI90
aI1
aI1
aI1
aI1
aI1
aI4
aI0
aI1
aI8
aI1
aI1
aI1
aI0
aI1
aI1
aI1
aI2
aI1
aI1
aI1
aI2
aI1
aI4
aI3
aI1
aI1
aI3
aI1
aI9
aI1
aI3
aI1
aI1
aI1
aI0
aI1
aI1
aI1
aI2
aI1
aI1
aI2
aI1
aI0
aI1
aI2
aI4
aI4
aI0
aI1
aI2
aI0
aI1
aI2
aI1
aI1
aI0
aI1
aI1
aI1
aI2
aI1
aI0
aI2
aI0
aI2
aI2
aI1
aI1
aI1
aI0
aI2
aI1
aI1
aI1
aI1
aI1
aI1
aI4
aI2
aI1
aI7
aI1
aI0
aI3
aI1
aI1
aI2
aI2
aI3
aI0
aI1
aI2
aI1
aI2
aI1
aI1
aI2
aI1
aI10
aI0
aI2
aI1
aI5
aI1
aI2
aI1
aI2
aI2
aI6
aI4
aI2
aI1
aI2
aI2
aI3
aI1
aI0
aI0
aI5
aI2
aI1
aI0
aI1
aI0
aI2
aI5
aI1
aI1
aI1
aI0
aI0
aI2
aI2
aI0
aI0
aI1
aI3
aI3
aI1
aI48
aI28
aI2
aI1
aI1
aI3
aI1
aI1
aI0
aI1
aI1
aI0
aI3
aI1
aI0
aI1
aI2
aI0
aI1
aI1
aI8
aI0
aI1
aI9
aI3
aI0
aI1
aI0
aI0
aI2
aI1
aI1
aI1
aI2
aI7
aI9
aI1
aI3
aI0
aI2
aI2
aI6
aI1
aI2
aI2
aI19
aI1
aI1
aI1
aI2
aI1
aI1
aI1
aI9
aI4
aI0
aI1
aI1
aI2
aI1
aI0
aI0
aI2
aI2
aI3
aI0
aI1
aI3
aI1
aI10
aI1
aI1
aI2
aI1
aI1
aI1
aI1
aI1
aI3
aI3
aI2
aI0
aI2
aI3
aI1
aI2
aI2
aI2
aI2
aI2
aI23
aI1
aI0
aI0
aI1
aI9
aI8
aI1
aI0
aI2
aI1
aI2
aI1
aI1
aI1
aI1
aI0
aI1
aI1
aI9
aI2
aI1
aI2
aI1
aI1
aI6
aI2
aI1
aI1
aI3
aI1
aI1
aI1
aI1
aI1
aI1
aI1
aI1
aI1
aI2
aI1
aI0
aI1
aI0
aI2
aI1
aI2
aI2
aI2
aI1
aI1
aI1
aI1
aI0
aI9
aI1
aI1
aI0
aI2
aI1
aI1
aI1
aI2
aI0
aI0
aI0
aI1
aI1
aI1
aI1
aI2
aI1
aI1
aI1
aI1
aI0
aI1
aI2
aI1
aI3
aI0
aI2
aI2
aI2
aI1
aI1
aI1
aI1
aI2
aI0
aI3
aI1
aI2
aI1
aI2
aI4
aI1
aI2
aI0
aI3
aI1
aI0
aI1
aI1
aI0
aI0
aI2
aI1
aI1
aI1
aI1
aI1
aI0
aI0
aI1
aI1
aI1
aI1
aI1
aI3
aI2
aI1
aI0
aI0
aI2
aI0
aI2
aI1
aI1
aI2
aI1
aI2
aI1
aI4
aI3
aI1
aI2
aI1
aI4
aI1
aI1
aI2
aI1
aI1
aI2
aI2
aI1
aI1
aI8
aI2
aI0
aI0
aI1
aI2
aI1
aI0
aI2
aI2
aI1
aI1
aI1
aI2
aI2
aI2
aI0
aI9
aI2
aI1
aI0
aI1
aI0
aI3
aI1
aI3
aI1
aI1
aI1
aI1
aI1
aI1
aI2
aI2
aI2
aI1
aI1
aI3
aI0
aI3
aI2
aI2
aI4
aI0
aI3
aI1
aI0
aI2
aI2
aI1
aI1
aI5
aI2
aI0
aI2
aI2
aI0
aI2
aI1
aI1
aI3
aI2
aI1
aI2
aI1
aI2
aI3
aI0
aI1
aI1
aI2
aI10
aI1
aI1
aI4
aI1
aI1
aI1
aI1
aI1
aI0
aI1
aI0
aI3
aI2
aI1
aI2
aI1
aI1
aI1
aI1
aI2
aI2
aI2
aI2
aI1
aI1
aI4
aI0
aI1
aI1
aI1
aI2
aI1
aI3
aI1
aI0
aI0
aI1
aI1
aI1
aI0
aI1
aI0
aI0
aI1
aI1
aI1
aI1
aI1
aI4
aI2
aI0
aI2
aI1
aI1
aI1
aI1
aI4
aI0
aI1
aI8
aI1
aI1
aI3
aI0
aI2
aI2
aI2
aI1
aI1
aI0
aI1
aI1
aI1
aI1
aI2
aI1
aI1
aI2
aI1
aI6
aI13
aI1
aI4
aI0
aI1
aI1
aI1
aI1
aI1
aI0
aI0
aI0
aI1
aI6
aI1
aI2
aI1
aI1
aI1
aI3
aI0
aI1
aI2
aI2
aI56
aI0
aI1
aI10
aI1
aI1
aI0
aI1
aI2
aI2
aI13
aI1
aI1
aI1
aI2
aI1
aI4
aI1
aI1
aI2
aI1
aI1
aI0
aI2
aI2
aI1
aI1
aI1
aI0
aI4
aI7
aI1
aI2
aI4
aI1
aI1
aI1
aI2
aI1
aI2
aI8
aI1
aI2
aI2
aI1
aI2
aI0
aI1
aI1
aI2
aI2
aI1
aI4
aI2
aI1
aI2
aI1
aI1
aI1
aI1
aI1
aI7
aI3
aI0
aI1
aI1
aI6
aI1
aI5
aI1
aI2
aI1
aI2
aI2
aI1
aI7
aI2
aI2
aI1
aI17
aI1
aI1
aI0
aI1
aI1
aI3
aI1
aI0
aI1
aI0
aI0
aI1
aI1
aI1
aI1
aI1
aI0
aI1
aI0
aI1
aI2
aI0
aI1
aI0
aI2
aI1
aI2
aI1
aI1
aI2
aI1
aI3
aI3
aI2
aI2
aI1
aI2
aI2
aI1
aI1
aI2
aI1
aI10
aI1
aI7
aI2
aI1
aI1
aI2
aI0
aI3
aI1
aI10
aI10
aI0
aI2
aI1
aI3
aI1
aI6
aI0
aI1
aI0
aI1
aI3
aI1
aI3
aI2
aI0
aI2
aI2
aI2
aI0
aI1
aI3
aI1
aI2
aI1
aI1
aI3
aI1
aI0
aI2
aI2
aI1
aI1
aI0
aI1
aI2
aI0
aI2
aI4
aI1
aI2
aI2
aI1
aI1
aI4
aI0
aI1
aI1
aI2
aI1
aI0
aI0
aI2
aI1
aI1
aI1
aI2
aI2
aI1
aI2
aI1
aI6
aI1
aI1
aI2
aI0
aI1
aI0
aI2
aI1
aI2
aI3
aI1
aI0
aI1
aI0
aI3
aI1
aI2
aI2
aI1
aI7
aI1
aI2
aI1
aI1
aI0
aI1
aI3
aI0
aI0
aI0
aI0
aI1
aI3
aI1
aI1
aI2
aI0
aI10
aI1
aI1
aI2
aI1
aI4
aI1
aI2
aI1
aI1
aI1
aI1
aI2
aI1
aI1
aI1
aI1
aI1
aI1
aI3
aI1
aI0
aI2
aI1
aI0
aI1
aI1
aI1
aI0
aI1
aI6
aI6
aI2
aI0
aI4
aI2
aI4
aI9
aI1
aI1
aI0
aI3
aI1
aI2
aI6
aI2
aI1
aI6
aI1
aI1
aI2
aI2
aI2
aI2
aI1
aI2
aI5
aI2
aI3
aI1
aI0
aI1
aI2
aI92
aI3
aI1
aI0
aI2
aI0
aI1
aI0
aI1
aI1
aI1
aI2
aI1
aI1
aI4
aI2
aI1
aI13
aI1
aI2
aI4
aI1
aI1
aI6
aI1
aI0
aI1
aI0
aI2
aI1
aI1
aI1
aI0
aI2
aI1
aI2
aI3
aI6
aI0
aI2
aI2
aI1
aI2
aI4
aI1
aI1
aI2
aI2
aI1
aI2
aI0
aI1
aI2
aI1
aI1
aI1
aI2
aI4
aI0
aI0
aI0
aI4
aI2
aI0
aI1
aI1
aI1
aI1
aI0
aI2
aI1
aI0
aI1
aI0
aI2
aI2
aI2
aI1
aI1
aI1
aI0
aI3
aI1
aI1
aI2
aI2
aI0
aI1
aI2
aI1
aI1
aI1
aI1
aI1
aI1
aI1
aI2
aI2
aI0
aI0
aI2
aI2
aI1
aI1
aI5
aI2
aI1
aI1
aI1
aI3
aI1
aI1
aI0
aI1
aI3
aI2
aI0
aI1
aI1
aI2
aI1
aI1
aI1
aI1
aI2
aI1
aI10
aI1
aI1
aI0
aI0
aI1
aI1
aI1
aI1
aI4
aI2
aI4
aI2
aI1
aI1
aI2
aI1
aI5
aI1
aI2
aI0
aI2
aI1
aI1
aI1
aI3
aI1
aI2
aI1
aI1
aI1
aI1
aI1
aI2
aI2
aI1
aI2
aI3
aI0
aI2
aI1
aI2
aI1
aI0
aI1
aI1
aI1
aI1
aI1
aI1
aI1
aI1
aI1
aI1
aI4
aI1
aI1
aI9
aI2
aI1
aI2
aI0
aI0
aI1
aI1
aI2
aI3
aI1
aI3
aI0
aI1
aI1
aI1
aI3
aI1
aI2
aI3
aI0
aI2
aI4
aI1
aI1
aI1
aI2
aI3
aI1
aI0
aI0
aI1
aI3
aI2
aI1
aI1
aI1
aI0
aI1
aI2
aI8
aI1
aI3
aI5
aI0
aI1
aI1
aI2
aI3
aI0
aI1
aI6
aI3
aI5
aI0
aI1
aI1
aI2
aI1
aI1
aI2
aI3
aI1
aI1
aI1
aI1
aI1
aI2
aI2
aI1
aI1
aI2
aI3
aI1
aI0
aI1
aI1
aI0
aI0
aI2
aI1
aI1
aI1
aI2
aI2
aI2
aI1
aI1
aI2
aI1
aI3
aI1
aI0
aI1
aI2
aI1
aI3
aI1
aI1
aI1
aI0
aI2
aI1
aI4
aI1
aI1
aI1
aI2
aI2
aI2
aI8
aI1
aI1
aI3
aI0
aI1
aI62
aI2
aI1
aI1
aI1
aI2
aI2
aI1
aI3
aI2
aI8
aI1
aI1
aI2
aI2
aI1
aI1
aI1
aI2
aI1
aI1
aI1
aI1
aI2
aI2
aI1
aI1
aI1
aI1
aI2
aI1
aI9
aI2
aI1
aI1
aI3
aI0
aI2
aI0
aI10
aI1
aI0
aI0
aI2
aI1
aI2
aI1
aI0
aI1
aI1
aI0
aI1
aI0
aI2
aI1
aI2
aI1
aI1
aI1
aI0
aI1
aI8
aI2
aI0
aI1
aI2
aI0
aI1
aI1
aI1
aI0
aI1
aI1
aI1
aI3
aI0
aI1
aI1
aI3
aI1
aI2
aI1
aI3
aI10
aI0
aI2
aI1
aI1
aI1
aI0
aI3
aI1
aI2
aI1
aI2
aI2
aI1
aI1
aI0
aI2
aI1
aI6
aI1
aI1
aI1
aI1
aI1
aI2
aI1
aI1
aI2
aI2
aI1
aI0
aI2
aI0
aI2
aI1
aI1
aI3
aI2
aI1
aI0
aI1
aI3
aI2
aI1
aI2
aI2
aI1
aI4
aI6
aI1
aI1
aI3
aI4
aI1
aI1
aI2
aI0
aI1
aI0
aI1
aI5
aI0
aI1
aI1
aI2
aI1
aI1
aI1
aI0
aI4
aI2
aI1
aI1
aI1
aI1
aI2
aI8
aI1
aI6
aI1
aI4
aI1
aI3
aI1
aI8
aI2
aI1
aI1
aI16
aI4
aI1
aI4
aI1
aI0
aI6
aI0
aI0
aI3
aI2
aI1
aI0
aI2
aI1
aI1
aI1
aI1
aI1
aI1
aI0
aI3
aI1
aI2
aI1
aI2
aI1
aI0
aI2
aI2
aI3
aI2
aI3
aI0
aI0
aI1
aI1
aI0
aI3
aI2
aI2
aI1
aI1
aI0
aI0
aI2
aI1
aI1
aI1
aI1
aI2
aI3
aI2
aI0
aI1
aI3
aI2
aI1
aI1
aI1
aI3
aI1
aI2
aI2
aI1
aI1
aI1
aI0
aI1
aI1
aI1
aI1
aI4
aI1
aI0
aI1
aI1
aI1
aI2
aI2
aI1
aI1
aI0
aI0
aI1
aI0
aI2
aI2
aI1
aI0
aI1
aI1
aI2
aI1
aI1
aI4
aI1
aI0
aI1
aI4
aI4
aI1
aI9
aI1
aI1
aI1
aI0
aI2
aI6
aI4
aI1
aI1
aI2
aI0
aI1
aI2
aI2
aI2
aI0
aI1
aI0
aI0
aI1
aI2
aI1
aI0
aI1
aI1
aI2
aI0
aI0
aI1
aI0
aI2
aI1
aI1
aI0
aI6
aI2
aI3
aI2
aI3
aI1
aI1
aI1
aI0
aI1
aI0
aI1
aI2
aI0
aI2
aI1
aI1
aI1
aI2
aI1
aI1
aI1
aI1
aI1
aI2
aI4
aI1
aI1
aI2
aI1
aI1
aI1
aI0
aI8
aI2
aI14
aI1
aI1
aI1
aI1
aI3
aI1
aI4
aI0
aI1
aI1
aI1
aI1
aI1
aI3
aI0
aI1
aI1
aI1
aI1
aI2
aI2
aI0
aI0
aI2
aI1
aI5
aI1
aI9
aI2
aI1
aI4
aI1
aI1
aI2
aI22
aI1
aI1
aI2
aI2
aI5
aI1
aI3
aI1
aI2
aI1
aI2
aI1
aI2
aI1
aI0
aI2
aI0
aI0
aI0
aI2
aI1
aI0
aI1
aI1
aI1
aI0
aI1
aI1
aI3
aI5
aI1
aI3
aI1
aI0
aI1
aI2
aI0
aI10
aI1
aI1
aI3
aI11
aI1
aI2
aI2
aI0
aI0
aI0
aI10
aI2
aI1
aI2
aI1
aI1
aI1
aI1
aI0
aI1
aI1
aI1
aI2
aI1
aI1
aI2
aI0
aI1
aI1
aI1
aI0
aI0
aI3
aI2
aI2
aI2
aI1
aI6
aI0
aI0
aI1
aI4
aI1
aI1
aI1
aI1
aI1
aI1
aI1
aI1
aI2
aI2
aI1
aI2
aI1
aI1
aI1
aI2
aI1
aI0
aI1
aI1
aI1
aI4
aI3
aI1
aI2
aI0
aI2
aI2
aI1
aI1
aI1
aI2
aI1
aI4
aI4
aI2
aI1
aI1
aI1
aI1
aI1
aI3
aI1
aI8
aI6
aI0
aI1
aI3
aI2
aI2
aI1
aI1
aI0
aI1
aI6
aI4
aI0
aI1
aI1
aI1
aI2
aI5
aI1
aI1
aI1
aI1
aI3
aI0
aI1
aI8
aI1
aI2
aI1
aI1
aI2
aI0
aI0
aI4
aI2
aI0
aI4
aI3
aI1
aI1
aI2
aI1
aI2
aI1
aI3
aI1
aI2
aI1
aI10
aI4
aI2
aI2
aI1
aI1
aI3
aI2
aI1
aI1
aI1
aI1
aI1
aI3
aI0
aI1
aI1
aI36
aI3
aI1
aI16
aI0
aI1
aI1
aI1
aI0
aI1
aI1
aI0
aI1
aI0
aI3
aI5
aI1
aI2
aI1
aI1
aI1
aI1
aI1
aI1
aI1
aI2
aI3
aI1
aI1
aI2
aI1
aI2
aI1
aI1
aI1
aI0
aI1
aI0
aI2
aI1
aI1
aI1
aI1
aI2
aI4
aI1
aI1
aI2
aI1
aI1
aI1
aI1
aI1
aI1
aI1
aI1
aI4
aI2
aI1
aI4
aI2
aI1
aI2
aI1
aI1
aI2
aI1
aI2
aI3
aI1
aI0
aI0
aI1
aI2
aI2
aI0
aI1
aI3
aI5
aI1
aI1
aI0
aI1
aI2
aI1
aI1
aI1
aI13
aI0
aI2
aI4
aI2
aI0
aI1
aI1
aI1
aI0
aI1
aI0
aI0
aI1
aI3
aI0
aI1
aI1
aI1
aI0
aI0
aI2
aI5
aI2
aI0
aI2
aI2
aI2
aI6
aI1
aI0
aI2
aI1
aI1
aI1
aI1
aI1
aI0
aI1
aI2
aI2
aI3
aI0
aI3
aI2
aI2
aI0
aI1
aI2
aI2
aI1
aI1
aI1
aI1
aI5
aI2
aI2
aI1
aI1
aI2
aI1
aI1
aI4
aI1
aI22
aI0
aI2
aI0
aI2
aI1
aI1
aI1
aI1
aI1
aI3
aI1
aI1
aI1
aI4
aI2
aI2
aI2
aI2
aI1
aI1
aI1
aI1
aI1
aI1
aI4
aI1
aI0
aI1
aI1
aI1
aI1
aI1
aI2
aI1
aI1
aI2
aI1
aI3
aI1
aI5
aI1
aI1
aI1
aI1
aI1
aI1
aI0
aI2
aI1
aI2
aI1
aI2
aI2
aI1
aI1
aI1
aI1
aI1
aI2
aI1
aI2
aI2
aI4
aI1
aI3
aI1
aI1
aI1
aI1
aI2
aI2
aI1
aI2
aI1
aI2
aI1
aI1
aI2
aI1
aI0
aI1
aI4
aI0
aI1
aI2
aI1
aI1
aI1
aI1
aI1
aI2
aI0
aI1
aI1
aI1
aI2
aI1
aI1
aI3
aI2
aI2
aI1
aI0
aI1
aI1
aI8
aI1
aI1
aI2
aI8
aI2
aI4
aI6
aI1
aI1
aI1
aI1
aI1
aI1
aI0
aI1
aI1
aI3
aI0
aI0
aI0
aI1
aI3
aI1
aI3
aI1
aI2
aI0
aI2
aI1
aI1
aI1
aI2
aI3
aI0
aI1
aI1
aI2
aI1
aI0
aI3
aI0
aI1
aI2
aI3
aI0
aI3
aI2
aI1
aI4
aI1
aI2
aI4
aI1
aI1
aI1
aI1
aI5
aI0
aI1
aI2
aI1
aI1
aI2
aI3
aI1
aI0
aI1
aI1
aI4
aI0
aI2
aI5
aI6
aI5
aI1
aI1
aI2
aI4
aI1
aI1
aI3
aI2
aI2
aI0
aI2
aI1
aI2
aI1
aI1
aI1
aI1
aI1
aI1
aI1
aI1
aI2
aI2
aI3
aI3
aI0
aI1
aI1
aI1
aI1
aI1
aI4
aI0
aI1
aI4
aI2
aI2
aI1
aI7
aI2
aI0
aI1
aI1
aI1
aI0
aI3
aI1
aI2
aI1
aI2
aI1
aI1
aI2
aI2
aI0
aI18
aI2
aI1
aI3
aI1
aI0
aI2
aI1
aI2
aI1
aI1
aI1
aI1
aI1
aI0
aI1
aI1
aI1
aI0
aI1
aI1
aI1
aI1
aI0
aI2
aI0
aI4
aI0
aI1
aI2
aI1
aI0
aI1
aI1
aI2
aI0
aI3
aI1
aI10
aI2
aI2
aI3
aI1
aI2
aI3
aI1
aI1
aI2
aI1
aI1
aI2
aI0
aI1
aI2
aI3
aI1
aI0
aI1
aI1
aI2
aI0
aI4
aI3
aI1
aI3
aI2
aI4
aI5
aI0
aI1
aI1
aI1
aI0
aI6
aI0
aI2
aI1
aI0
aI1
aI1
aI1
aI1
aI1
aI1
aI1
aI1
aI1
aI4
aI2
aI1
aI1
aI1
aI0
aI1
aI4
aI1
aI1
aI0
aI1
aI10
aI2
aI1
aI0
aI1
aI0
aI2
aI1
aI0
aI2
aI2
aI1
aI2
aI0
aI4
aI2
aI3
aI2
aI0
aI1
aI2
aI1
aI0
aI1
aI38
aI1
aI2
aI1
aI1
aI3
aI2
aI1
aI1
aI0
aI3
aI3
aI5
aI2
aI2
aI1
aI1
aI1
aI1
aI6
aI2
aI2
aI1
aI1
aI0
aI1
aI2
aI2
aI3
aI2
aI2
aI1
aI2
aI1
aI1
aI18
aI1
aI1
aI1
aI2
aI9
aI1
aI1
aI0
aI0
aI3
aI1
aI2
aI2
aI1
aI1
aI2
aI1
aI1
aI1
aI2
aI2
aI2
aI5
aI1
aI3
aI1
aI1
aI1
aI0
aI1
aI2
aI1
aI0
aI1
aI1
aI1
aI2
aI1
aI4
aI2
aI1
aI0
aI0
aI1
aI11
aI0
aI1
aI1
aI1
aI2
aI3
aI1
aI15
aI1
aI0
aI1
aI1
aI1
aI1
aI0
aI6
aI1
aI2
aI2
aI0
aI2
aI2
aI10
aI1
aI2
aI1
aI2
aI1
aI1
aI8
aI5
aI2
aI0
aI3
aI0
aI1
aI1
aI1
aI1
aI1
aI1
aI1
aI1
aI0
aI2
aI1
aI2
aI3
aI2
aI1
aI0
aI1
aI1
aI1
aI1
aI1
aI1
aI1
aI1
aI7
aI1
aI1
aI4
aI0
aI2
aI1
aI1
aI1
aI1
aI3
aI2
aI1
aI1
aI1
aI1
aI2
aI2
aI3
aI2
aI1
aI2
aI0
aI1
aI1
aI2
aI2
aI1
aI0
aI2
aI1
aI1
aI4
aI1
aI6
aI1
aI3
aI1
aI10
aI2
aI1
aI8
aI2
aI5
aI1
aI2
aI0
aI1
aI1
aI1
aI0
aI10
aI2
aI2
aI1
aI9
aI3
aI1
aI0
aI0
aI1
aI1
aI3
aI1
aI1
aI1
aI1
aI1
aI1
aI1
aI2
aI2
aI0
aI3
aI1
aI1
aI0
aI0
aI1
aI1
aI3
aI2
aI3
aI5
aI1
aI1
aI1
aI2
aI1
aI2
aI1
aI1
aI0
aI1
aI2
aI3
aI2
aI4
aI3
aI2
aI0
aI2
aI2
aI2
aI1
aI1
aI1
aI1
aI1
aI1
aI1
aI1
aI2
aI3
aI3
aI4
aI1
aI1
aI3
aI1
aI1
aI1
aI14
aI1
aI3
aI1
aI5
aI1
aI1
aI3
aI1
aI1
aI2
aI1
aI1
aI0
aI1
aI2
aI3
aI3
aI1
aI2
aI3
aI1
aI1
aI1
aI1
aI1
aI1
aI0
aI1
aI1
aI1
aI1
aI1
aI2
aI4
aI1
aI3
aI1
aI3
aI1
aI2
aI1
aI3
aI4
aI0
aI1
aI1
aI1
aI0
aI4
aI1
aI1
aI1
aI1
aI1
aI2
aI1
aI3
aI1
aI2
aI1
aI0
aI1
aI6
aI2
aI1
aI0
aI1
aI1
aI1
aI0
aI1
aI2
aI1
aI0
aI1
aI0
aI3
aI2
aI1
aI1
aI1
aI3
aI0
aI1
aI1
aI1
aI2
aI3
aI1
aI1
aI1
aI1
aI2
aI4
aI2
aI1
aI1
aI1
aI3
aI0
aI2
aI1
aI1
aI1
aI1
aI1
aI2
aI8
aI1
aI0
aI17
aI20
aI3
aI2
aI1
aI0
aI0
aI1
aI1
aI1
aI15
aI1
aI1
aI4
aI1
aI1
aI1
aI0
aI3
aI2
aI1
aI1
aI0
aI3
aI6
aI1
aI9
aI3
aI2
aI2
aI1
aI3
aI0
aI2
aI1
aI1
aI2
aI2
aI18
aI22
aI3
aI0
aI2
aI1
aI4
aI3
aI0
aI1
aI2
aI1
aI1
aI1
aI2
aI2
aI4
aI12
aI1
aI0
aI2
aI1
aI1
aI0
aI0
aI0
aI2
aI1
aI2
aI0
aI1
aI3
aI1
aI3
aI2
aI2
aI0
aI2
aI1
aI1
aI2
aI1
aI1
aI1
aI6
aI2
aI2
aI1
aI5
aI2
aI1
aI1
aI2
aI1
aI3
aI1
aI0
aI1
aI1
aI0
aI1
aI1
aI1
aI0
aI0
aI1
aI1
aI1
aI2
aI1
aI2
aI2
aI1
aI1
aI2
aI1
aI2
aI2
aI2
aI2
aI7
aI0
aI0
aI4
aI2
aI1
aI3
aI2
aI0
aI2
aI1
aI6
aI4
aI2
aI1
aI3
aI1
aI0
aI1
aI1
aI1
aI3
aI2
aI6
aI1
aI2
aI1
aI2
aI2
aI1
aI3
aI1
aI1
aI0
aI5
aI1
aI0
aI1
aI2
aI1
aI1
aI2
aI1
aI2
aI2
aI1
aI0
aI0
aI2
aI1
aI1
aI2
aI1
aI5
aI2
aI0
aI2
aI1
aI0
aI1
aI3
aI3
aI2
aI2
aI7
aI1
aI0
aI2
aI1
aI1
aI1
aI1
aI6
aI1
aI1
aI1
aI4
aI1
aI1
aI0
aI3
aI1
aI2
aI2
aI4
aI3
aI1
aI1
aI2
aI1
aI2
aI3
aI0
aI1
aI4
aI1
aI0
aI0
aI1
aI1
aI1
aI1
aI3
aI3
aI3
aI1
aI0
aI2
aI1
aI0
aI1
aI1
aI0
aI0
aI2
aI3
aI1
aI1
aI1
aI3
aI0
aI1
aI0
aI1
aI2
aI1
aI3
aI2
aI1
aI1
aI1
aI1
aI1
aI1
aI1
aI2
aI1
aI3
aI1
aI2
aI1
aI2
aI0
aI2
aI2
aI2
aI1
aI2
aI5
aI1
aI1
aI2
aI2
aI1
aI1
aI1
aI2
aI5
aI1
aI2
aI1
aI3
aI1
aI0
aI1
aI10
aI2
aI2
aI2
aI1
aI1
aI1
aI7
aI2
aI1
aI2
aI2
aI1
aI0
aI1
aI0
aI0
aI4
aI2
aI1
aI1
aI4
aI3
aI2
aI1
aI1
aI0
aI2
aI1
aI4
aI0
aI4
aI1
aI1
aI1
aI1
aI1
aI2
aI2
aI3
aI2
aI1
aI1
aI1
aI1
aI1
aI1
aI2
aI3
aI4
aI0
aI1
aI1
aI3
aI1
aI1
aI5
aI1
aI1
aI1
aI4
aI1
aI4
aI1
aI1
aI1
aI2
aI1
aI1
aI2
aI2
aI3
aI1
aI1
aI1
aI1
aI1
aI1
aI2
aI0
aI2
aI1
aI0
aI1
aI2
aI1
aI1
aI1
aI2
aI1
aI1
aI1
aI1
aI1
aI1
aI1
aI2
aI2
aI0
aI0
aI1
aI0
aI1
aI2
aI2
aI2
aI1
aI2
aI1
aI1
aI4
aI1
aI1
aI2
aI4
aI0
aI1
aI1
aI3
aI5
aI2
aI1
aI1
aI1
aI4
aI1
aI1
aI1
aI0
aI1
aI4
aI3
aI1
aI1
aI1
aI1
aI2
aI2
aI0
aI1
aI1
aI7
aI6
aI1
aI1
aI4
aI1
aI3
aI6
aI1
aI1
aI0
aI0
aI2
aI1
aI0
aI0
aI3
aI1
aI1
aI1
aI0
aI0
aI1
aI1
aI2
aI1
aI2
aI1
aI1
aI1
aI7
aI2
aI0
aI4
aI1
aI2
aI1
aI8
aI1
aI1
aI1
aI1
aI2
aI0
aI5
aI2
aI4
aI0
aI1
aI1
aI1
aI1
aI1
aI0
aI4
aI1
aI3
aI1
aI1
aI6
aI1
aI2
aI1
aI2
aI3
aI0
aI5
aI1
aI1
aI2
aI5
aI1
aI0
aI3
aI0
aI1
aI0
aI1
aI1
aI15
aI1
aI1
aI2
aI16
aI1
aI1
aI4
aI2
aI1
aI1
aI1
aI2
aI1
aI1
aI2
aI3
aI2
aI2
aI3
aI1
aI1
aI1
aI3
aI6
aI18
aI1
aI2
aI1
aI0
aI2
aI1
aI0
aI2
aI1
aI1
aI0
aI0
aI1
aI2
aI4
aI1
aI1
aI0
aI4
aI2
aI1
aI1
aI1
aI1
aI13
aI1
aI0
aI2
aI1
aI1
aI2
aI1
aI0
aI1
aI1
aI1
aI1
aI1
aI4
aI2
aI1
aI1
aI8
aI1
aI1
aI1
aI1
aI5
aI1
aI5
aI1
aI1
aI3
aI0
aI0
aI1
aI0
aI3
aI2
aI4
aI4
aI2
aI3
aI1
aI1
aI1
aI1
aI1
aI1
aI2
aI0
aI1
aI2
aI1
aI1
aI1
aI1
aI2
aI6
aI1
aI1
aI1
aI1
aI1
aI2
aI3
aI6
aI1
aI1
aI24
aI2
aI3
aI5
aI1
aI0
aI1
aI2
aI2
aI1
aI1
aI1
aI1
aI1
aI2
aI0
aI0
aI1
aI6
aI1
aI1
aI9
aI0
aI0
aI1
aI3
aI1
aI1
aI1
aI0
aI0
aI1
aI1
aI5
aI0
aI0
aI0
aI2
aI1
aI1
aI1
aI1
aI1
aI1
aI2
aI1
aI3
aI5
aI1
aI1
aI1
aI1
aI0
aI1
aI1
aI6
aI0
aI1
aI1
aI1
aI1
aI3
aI3
aI1
aI1
aI1
aI2
aI0
aI3
aI1
aI2
aI0
aI1
aI3
aI3
aI1
aI2
aI5
aI0
aI0
aI1
aI2
aI6
aI1
aI1
aI1
aI2
aI1
aI1
aI4
aI1
aI3
aI1
aI1
aI1
aI1
aI1
aI1
aI1
aI0
aI1
aI1
aI1
aI0
aI0
aI1
aI2
aI1
aI1
aI3
aI2
aI2
aI2
aI1
aI2
aI5
aI2
aI0
aI1
aI2
aI1
aI1
aI0
aI1
aI5
aI0
aI2
aI0
aI2
aI2
aI1
aI3
aI2
aI3
aI4
aI1
aI1
aI1
aI2
aI1
aI1
aI2
aI1
aI2
aI0
aI0
aI1
aI1
aI1
aI8
aI2
aI1
aI1
aI1
aI0
aI1
aI2
aI6
aI2
aI1
aI3
aI1
aI2
aI1
aI1
aI1
aI2
aI2
aI1
aI1
aI1
aI1
aI1
aI3
aI1
aI0
aI1
aI1
aI1
aI4
aI1
aI1
aI2
aI1
aI1
aI2
aI0
aI1
aI2
aI0
aI1
aI1
aI1
aI2
aI1
aI1
aI1
aI5
aI1
aI1
aI2
aI1
aI2
aI1
aI1
aI0
aI1
aI0
aI1
aI2
aI3
aI2
aI4
aI1
aI4
aI4
aI1
aI2
aI3
aI0
aI1
aI0
aI2
aI0
aI1
aI2
aI1
aI1
aI0
aI3
aI0
aI1
aI1
aI2
aI1
aI1
aI1
aI1
aI1
aI2
aI2
aI1
aI3
aI2
aI1
aI2
aI2
aI1
aI1
aI1
aI1
aI0
aI0
aI0
aI1
aI2
aI1
aI1
aI1
aI1
aI2
aI3
aI1
aI0
aI1
aI0
aI1
aI1
aI1
aI0
aI1
aI1
aI1
aI2
aI4
aI1
aI1
aI1
aI2
aI1
aI0
aI2
aI1
aI5
aI0
aI2
aI3
aI1
aI1
aI1
aI5
aI4
aI2
aI3
aI13
aI2
aI1
aI2
aI1
aI2
aI4
aI2
aI1
aI2
aI1
aI2
aI6
aI1
aI1
aI5
aI2
aI2
aI1
aI1
aI1
aI1
aI1
aI1
aI19
aI3
aI1
aI0
aI3
aI1
aI1
aI1
aI1
aI1
aI0
aI0
aI2
aI1
aI0
aI1
aI1
aI1
aI1
aI1
aI1
aI1
aI1
aI0
aI2
aI0
aI1
aI1
aI0
aI3
aI1
aI0
aI1
aI3
aI1
aI1
aI0
aI4
aI1
aI0
aI1
aI2
aI15
aI1
aI2
aI2
aI0
aI2
aI1
aI1
aI1
aI1
aI3
aI1
aI4
aI2
aI2
aI1
aI3
aI2
aI1
aI2
aI1
aI0
aI0
aI0
aI0
aI1
aI1
aI1
aI3
aI2
aI1
aI1
aI2
aI1
aI0
aI0
aI1
aI1
aI1
aI2
aI1
aI1
aI2
aI1
aI1
aI1
aI1
aI0
aI1
aI1
aI2
aI1
aI5
aI1
aI1
aI1
aI1
aI0
aI2
aI1
aI2
aI3
aI1
aI1
aI2
aI1
aI1
aI1
aI2
aI1
aI4
aI1
aI1
aI1
aI1
aI1
aI1
aI2
aI2
aI2
aI1
aI1
aI1
aI0
aI2
aI6
aI7
aI2
aI1
aI1
aI1
aI2
aI4
aI1
aI3
aI2
aI0
aI1
aI1
aI2
aI1
aI1
aI2
aI1
aI2
aI1
aI1
aI1
aI1
aI0
aI1
aI8
aI1
aI1
aI1
aI1
aI1
aI1
aI2
aI2
aI1
aI1
aI1
aI0
aI1
aI3
aI2
aI1
aI1
aI1
aI5
aI1
aI4
aI2
aI0
aI1
aI0
aI1
aI2
aI1
aI0
aI3
aI1
aI1
aI1
aI1
aI1
aI7
aI2
aI1
aI2
aI1
aI2
aI0
aI6
aI2
aI0
aI2
aI2
aI1
aI1
aI3
aI2
aI1
aI1
aI1
aI3
aI1
aI1
aI1
aI0
aI1
aI2
aI1
aI0
aI1
aI1
aI1
aI1
aI2
aI1
aI1
aI1
aI3
aI2
aI1
aI3
aI1
aI0
aI0
aI1
aI2
aI1
aI0
aI2
aI1
aI7
aI1
aI3
aI1
aI1
aI1
aI4
aI3
aI2
aI1
aI1
aI0
aI3
aI1
aI1
aI8
aI1
aI5
aI1
aI2
aI0
aI2
aI11
aI1
aI0
aI5
aI1
aI1
aI2
aI0
aI2
aI1
aI8
aI1
aI0
aI2
aI3
aI1
aI1
aI2
aI2
aI1
aI2
aI0
aI2
aI0
aI1
aI2
aI1
aI2
aI1
aI1
aI1
aI1
aI1
aI0
aI2
aI0
aI1
aI2
aI1
aI3
aI13
aI4
aI1
aI1
aI1
aI1
aI1
aI0
aI1
aI5
aI1
aI2
aI1
aI1
aI2
aI2
aI2
aI11
aI1
aI1
aI0
aI2
aI1
aI8
aI2
aI1
aI1
aI1
aI1
aI1
aI2
aI1
aI2
aI2
aI0
aI3
aI1
aI2
aI1
aI1
aI2
aI2
aI1
aI2
aI1
aI1
aI1
aI1
aI1
aI0
aI1
aI0
aI0
aI1
aI0
aI1
aI1
aI1
aI2
aI3
aI3
aI2
aI1
aI0
aI1
aI2
aI1
aI1
aI0
aI2
aI2
aI7
aI1
aI4
aI1
aI1
aI1
aI5
aI1
aI2
aI1
aI0
aI1
aI0
aI2
aI1
aI1
aI1
aI1
aI1
aI4
aI3
aI0
aI2
aI2
aI1
aI3
aI3
aI0
aI1
aI2
aI2
aI1
aI1
aI0
aI1
aI1
aI1
aI1
aI2
aI2
aI2
aI4
aI2
aI1
aI1
aI1
aI1
aI3
aI0
aI1
aI1
aI1
aI2
aI2
aI1
aI1
aI1
aI2
aI2
aI0
aI0
aI2
aI1
aI1
aI4
aI1
aI0
aI2
aI0
aI1
aI2
aI6
aI0
aI1
aI2
aI5
aI5
aI3
aI1
aI7
aI1
aI8
aI0
aI1
aI2
aI2
aI3
aI2
aI2
aI4
aI2
aI2
aI8
aI4
aI1
aI0
aI3
aI2
aI3
aI2
aI2
aI2
aI1
aI1
aI1
aI2
aI2
aI1
aI1
aI1
aI2
aI2
aI1
aI0
aI16
aI1
aI1
aI2
aI0
aI1
aI2
aI0
aI1
aI1
aI1
aI1
aI2
aI1
aI1
aI0
aI2
aI2
aI0
aI1
aI1
aI2
aI2
aI0
aI2
aI0
aI3
aI1
aI0
aI1
aI1
aI1
aI0
aI1
aI1
aI1
aI1
aI0
aI7
aI2
aI3
aI1
aI5
aI1
aI1
aI1
aI2
aI0
aI1
aI1
aI1
aI1
aI4
aI1
aI0
aI1
aI1
aI2
aI1
aI4
aI2
aI2
aI0
aI2
aI1
aI4
aI1
aI1
aI1
aI1
aI1
aI1
aI2
aI3
aI1
aI3
aI0
aI3
aI0
aI1
aI1
aI2
aI1
aI0
aI1
aI4
aI1
aI2
aI1
aI4
aI1
aI2
aI3
aI0
aI1
aI1
aI2
aI0
aI1
aI2
aI1
aI6
aI1
aI1
aI0
aI1
aI1
aI2
aI1
aI1
aI3
aI0
aI1
aI1
aI1
aI2
aI3
aI2
aI1
aI3
aI1
aI2
aI0
aI0
aI1
aI2
aI1
aI1
aI0
aI2
aI3
aI2
aI3
aI1
aI1
aI1
aI5
aI1
aI1
aI1
aI2
aI1
aI0
aI1
aI1
aI1
aI2
aI2
aI1
aI1
aI1
aI1
aI0
aI1
aI0
aI1
aI1
aI2
aI1
aI1
aI3
aI0
aI7
aI0
aI0
aI0
aI2
aI1
aI0
aI1
aI1
aI2
aI1
aI19
aI2
aI2
aI2
aI3
aI1
aI2
aI1
aI0
aI0
aI1
aI1
aI1
aI2
aI1
aI1
aI0
aI1
aI0
aI1
aI1
aI1
aI1
aI1
aI1
aI0
aI1
aI1
aI1
aI2
aI1
aI2
aI1
aI6
aI2
aI1
aI1
aI5
aI1
aI1
aI1
aI1
aI1
aI0
aI5
aI2
aI1
aI1
aI1
aI2
aI0
aI1
aI2
aI0
aI2
aI1
aI1
aI2
aI1
aI10
aI2
aI1
aI1
aI4
aI2
aI13
aI1
aI3
aI1
aI1
aI0
aI1
aI2
aI1
aI1
aI1
aI2
aI2
aI1
aI1
aI4
aI1
aI2
aI1
aI1
aI1
aI2
aI4
aI1
aI1
aI0
aI2
aI3
aI2
aI1
aI1
aI0
aI2
aI1
aI1
aI1
aI1
aI3
aI2
aI1
aI4
aI5
aI1
aI2
aI1
aI5
aI5
aI5
aI2
aI1
aI1
aI1
aI1
aI2
aI1
aI5
aI0
aI0
aI1
aI1
aI1
aI3
aI3
aI1
aI2
aI1
aI0
aI2
aI1
aI1
aI1
aI6
aI1
aI9
aI0
aI2
aI2
aI2
aI1
aI1
aI1
aI4
aI0
aI0
aI1
aI4
aI1
aI1
aI2
aI1
aI1
aI2
aI2
aI1
aI3
aI7
aI0
aI3
aI5
aI1
aI5
aI1
aI2
aI1
aI1
aI0
aI8
aI1
aI1
aI2
aI1
aI0
aI2
aI0
aI4
aI0
aI1
aI0
aI0
aI1
aI1
aI2
aI0
aI1
aI3
aI0
aI6
aI1
aI4
aI2
aI2
aI2
aI2
aI2
aI1
aI1
aI0
aI1
aI1
aI2
aI1
aI0
aI11
aI2
aI0
aI2
aI2
aI1
aI1
aI1
aI1
aI0
aI2
aI1
aI2
aI2
aI1
aI1
aI1
aI3
aI1
aI1
aI1
aI5
aI5
aI1
aI2
aI4
aI0
aI1
aI2
aI1
aI1
aI1
aI1
aI1
aI1
aI2
aI0
aI0
aI1
aI0
aI3
aI1
aI2
aI0
aI0
aI2
aI3
aI2
aI2
aI1
aI1
aI4
aI1
aI1
aI2
aI1
aI1
aI1
aI0
aI1
aI1
aI1
aI0
aI1
aI2
aI6
aI1
aI2
aI2
aI3
aI2
aI1
aI2
aI1
aI1
aI1
aI1
aI8
aI1
aI1
aI1
aI2
aI1
aI5
aI2
aI0
aI2
aI11
aI1
aI1
aI2
aI2
aI2
aI1
aI0
aI2
aI0
aI1
aI1
aI1
aI1
aI2
aI1
aI1
aI1
aI1
aI2
aI1
aI1
aI1
aI2
aI0
aI0
aI5
aI3
aI2
aI1
aI3
aI3
aI1
aI1
aI4
aI1
aI2
aI1
aI1
aI1
aI1
aI3
aI0
aI1
aI1
aI5
aI1
aI1
aI1
aI1
aI1
aI1
aI1
aI1
aI2
aI1
aI1
aI16
aI1
aI1
aI9
aI7
aI1
aI2
aI1
aI1
aI4
aI1
aI1
aI1
aI6
aI1
aI2
aI2
aI1
aI1
aI0
aI0
aI1
aI1
aI1
aI1
aI2
aI2
aI1
aI1
aI1
aI0
aI1
aI2
aI0
aI1
aI2
aI0
aI1
aI1
aI1
aI3
aI1
aI1
aI0
aI2
aI1
aI1
aI1
aI0
aI0
aI1
aI1
aI2
aI0
aI1
aI6
aI12
aI1
aI0
aI1
aI2
aI1
aI0
aI1
aI1
aI1
aI4
aI1
aI1
aI1
aI1
aI0
aI1
aI3
aI0
aI26
aI1
aI1
aI1
aI1
aI1
aI6
aI0
aI2
aI1
aI1
aI1
aI1
aI1
aI2
aI0
aI1
aI1
aI2
aI4
aI2
aI3
aI1
aI0
aI1
aI1
aI0
aI2
aI1
aI2
aI1
aI0
aI1
aI4
aI1
aI1
aI1
aI2
aI2
aI2
aI2
aI1
aI1
aI3
aI1
aI2
aI2
aI1
aI3
aI2
aI2
aI0
aI1
aI5
aI2
aI1
aI1
aI2
aI1
aI2
aI1
aI1
aI1
aI1
aI1
aI3
aI1
aI2
aI1
aI5
aI14
aI1
aI1
aI1
aI1
aI1
aI1
aI0
aI1
aI1
aI1
aI1
aI2
aI1
aI1
aI2
aI2
aI1
aI2
aI1
aI1
aI1
aI2
aI1
aI1
aI1
aI1
aI1
aI4
aI0
aI1
aI1
aI16
aI1
aI1
aI0
aI4
aI0
aI0
aI1
aI0
aI1
aI4
aI2
aI5
aI0
aI1
aI1
aI1
aI1
aI2
aI1
aI0
aI1
aI1
aI16
aI1
aI1
aI1
aI2
aI7
aI1
aI2
aI2
aI1
aI1
aI4
aI1
aI1
aI0
aI1
aI1
aI2
aI0
aI0
aI1
aI12
aI2
aI2
aI4
aI1
aI1
aI1
aI2
aI2
aI1
aI0
aI0
aI3
aI1
aI1
aI1
aI2
aI0
aI3
aI0
aI6
aI2
aI4
aI1
aI1
aI1
aI1
aI2
aI0
aI5
aI1
aI2
aI0
aI2
aI1
aI1
aI1
aI2
aI0
aI1
aI1
aI2
aI0
aI1
aI1
aI0
aI1
aI1
aI1
aI2
aI1
aI5
aI1
aI1
aI6
aI0
aI2
aI3
aI1
aI0
aI1
aI1
aI2
aI3
aI1
aI4
aI2
aI0
aI0
aI1
aI2
aI0
aI1
aI12
aI3
aI1
aI1
aI2
aI1
aI0
aI2
aI1
aI2
aI6
aI1
aI2
aI2
aI2
aI2
aI1
aI1
aI0
aI1
aI2
aI4
aI1
aI2
aI1
aI3
aI1
aI1
aI0
aI0
aI2
aI1
aI1
aI1
aI3
aI2
aI3
aI1
aI3
aI1
aI1
aI3
aI1
aI1
aI1
aI1
aI2
aI2
aI1
aI1
aI1
aI2
aI0
aI2
aI5
aI1
aI0
aI1
aI1
aI1
aI1
aI2
aI1
aI1
aI1
aI6
aI0
aI2
aI2
aI9
aI1
aI1
aI1
aI1
aI2
aI1
aI1
aI1
aI0
aI2
aI2
aI1
aI1
aI5
aI1
aI3
aI3
aI3
aI1
aI8
aI0
aI1
aI0
aI1
aI3
aI1
aI4
aI1
aI1
aI3
aI3
aI0
aI0
aI3
aI2
aI1
aI1
aI5
aI0
aI1
aI0
aI1
aI1
aI1
aI0
aI0
aI1
aI1
aI1
aI1
aI4
aI1
aI2
aI1
aI1
aI2
aI1
aI4
aI0
aI1
aI1
aI0
aI1
aI1
aI1
aI1
aI1
aI3
aI1
aI0
aI1
aI2
aI1
aI0
aI1
aI7
aI1
aI2
aI1
aI1
aI1
aI1
aI0
aI2
aI2
aI3
aI2
aI1
aI0
aI1
aI2
aI3
aI1
aI1
aI2
aI2
aI1
aI3
aI0
aI0
aI1
aI1
aI3
aI1
aI0
aI1
aI1
aI2
aI1
aI3
aI0
aI2
aI1
aI1
aI1
aI0
aI1
aI2
aI2
aI1
aI2
aI0
aI1
aI2
aI0
aI1
aI2
aI1
aI1
aI2
aI4
aI1
aI0
aI5
aI3
aI1
aI1
aI3
aI2
aI0
aI1
aI1
aI0
aI1
aI2
aI2
aI2
aI1
aI2
aI2
aI5
aI2
aI1
aI1
aI2
aI1
aI1
aI6
aI1
aI5
aI3
aI1
aI1
aI0
aI2
aI1
aI2
aI2
aI8
aI1
aI0
aI3
aI1
aI6
aI1
aI1
aI0
aI1
aI1
aI1
aI1
aI0
aI1
aI1
aI2
aI3
aI1
aI1
aI2
aI1
aI1
aI0
aI2
aI4
aI1
aI1
aI1
aI3
aI1
aI1
aI1
aI1
aI2
aI1
aI11
aI0
aI0
aI1
aI1
aI4
aI2
aI2
aI1
aI1
aI1
aI1
aI3
aI2
aI1
aI4
aI1
aI3
aI2
aI12
aI1
aI1
aI1
aI2
aI2
aI1
aI1
aI2
aI1
aI1
aI5
aI4
aI2
aI7
aI0
aI1
aI1
aI1
aI1
aI1
aI0
aI2
aI1
aI0
aI1
aI2
aI1
aI1
aI1
aI1
aI2
aI1
aI2
aI2
aI1
aI1
aI3
aI1
aI5
aI34
aI2
aI1
aI5
aI5
aI1
aI5
aI1
aI1
aI1
aI1
aI1
aI2
aI3
aI1
aI13
aI1
aI0
aI1
aI1
aI0
aI1
aI0
aI2
aI1
aI1
aI1
aI0
aI2
aI0
aI1
aI1
aI2
aI2
aI1
aI1
aI2
aI1
aI1
aI4
aI1
aI2
aI3
aI13
aI0
aI8
aI2
aI4
aI2
aI1
aI7
aI1
aI1
aI3
aI1
aI1
aI2
aI1
aI1
aI2
aI0
aI2
aI1
aI10
aI3
aI2
aI1
aI2
aI2
aI0
aI0
aI2
aI1
aI1
aI1
aI1
aI1
aI1
aI1
aI0
aI3
aI1
aI0
aI0
aI1
aI2
aI2
aI0
aI3
aI1
aI10
aI3
aI0
aI1
aI1
aI1
aI0
aI3
aI1
aI1
aI12
aI3
aI1
aI0
aI1
aI0
aI1
aI1
aI2
aI1
aI0
aI1
aI3
aI2
aI1
aI0
aI2
aI3
aI1
aI1
aI1
aI1
aI2
aI1
aI1
aI1
aI0
aI1
aI1
aI1
aI1
aI1
aI1
aI3
aI2
aI1
aI4
aI5
aI1
aI0
aI1
aI4
aI1
aI2
aI2
aI0
aI2
aI1
aI0
aI1
aI1
aI3
aI2
aI7
aI0
aI1
aI1
aI0
aI1
aI0
aI6
aI0
aI3
aI1
aI3
aI0
aI0
aI4
aI1
aI1
aI3
aI2
aI2
aI2
aI3
aI0
aI1
aI3
aI0
aI1
aI1
aI0
aI2
aI1
aI2
aI3
aI0
aI1
aI1
aI3
aI1
aI10
aI2
aI2
aI11
aI1
aI1
aI1
aI2
aI1
aI2
aI2
aI7
aI1
aI1
aI2
aI2
aI1
aI1
aI1
aI5
aI0
aI1
aI8
aI1
aI1
aI1
aI1
aI2
aI1
aI1
aI1
aI1
aI1
aI0
aI1
aI4
aI1
aI1
aI1
aI1
aI0
aI3
aI1
aI10
aI3
aI2
aI3
aI1
aI3
aI2
aI1
aI1
aI2
aI5
aI0
aI1
aI4
aI3
aI1
aI2
aI1
aI1
aI1
aI1
aI0
aI1
aI1
aI2
aI1
aI1
aI1
aI1
aI1
aI1
aI4
aI4
aI2
aI2
aI1
aI1
aI1
aI1
aI1
aI2
aI2
aI0
aI1
aI1
aI0
aI0
aI1
aI1
aI3
aI1
aI1
aI1
aI1
aI1
aI1
aI2
aI1
aI2
aI2
aI1
aI1
aI3
aI1
aI1
aI1
aI2
aI1
aI4
aI3
aI0
aI2
aI1
aI0
aI2
aI0
aI1
aI2
aI2
aI7
aI1
aI0
aI1
aI1
aI2
aI2
aI0
aI1
aI1
aI2
aI3
aI2
aI0
aI1
aI1
aI1
aI1
aI2
aI0
aI0
aI5
aI2
aI8
aI1
aI1
aI1
aI0
aI0
aI1
aI1
aI1
aI13
aI3
aI2
aI4
aI1
aI1
aI1
aI1
aI0
aI1
aI3
aI1
aI4
aI0
aI1
aI0
aI1
aI1
aI1
aI1
aI1
aI0
aI2
aI1
aI8
aI0
aI1
aI2
aI3
aI1
aI2
aI1
aI1
aI1
aI6
aI1
aI0
aI1
aI2
aI1
aI1
aI3
aI1
aI1
aI3
aI2
aI1
aI0
aI1
aI1
aI0
aI2
aI1
aI1
aI2
aI4
aI1
aI2
aI2
aI5
aI0
aI1
aI2
aI1
aI0
aI1
aI0
aI1
aI1
aI3
aI19
aI0
aI3
aI2
aI2
aI1
aI1
aI2
aI1
aI2
aI2
aI2
aI1
aI1
aI1
aI2
aI0
aI1
aI1
aI0
aI1
aI1
aI2
aI2
aI0
aI1
aI1
aI0
aI1
aI0
aI2
aI1
aI0
aI0
aI0
aI3
aI1
aI1
aI1
aI1
aI0
aI3
aI2
aI1
aI1
aI1
aI1
aI0
aI1
aI1
aI1
aI1
aI2
aI4
aI3
aI1
aI0
aI0
aI1
aI1
aI1
aI2
aI0
aI0
aI1
aI2
aI1
aI4
aI1
aI3
aI1
aI1
aI3
aI1
aI0
aI1
aI0
aI1
aI0
aI2
aI1
aI1
aI2
aI1
aI2
aI1
aI2
aI0
aI1
aI0
aI1
aI1
aI0
aI0
aI3
aI0
aI1
aI0
aI2
aI1
aI1
aI2
aI1
aI1
aI0
aI4
aI1
aI5
aI2
aI1
aI2
aI1
aI2
aI1
aI1
aI1
aI0
aI1
aI1
aI1
aI1
aI1
aI1
aI0
aI0
aI1
aI2
aI1
aI2
aI4
aI1
aI0
aI4
aI1
aI2
aI2
aI0
aI2
aI1
aI1
aI1
aI1
aI2
aI4
aI1
aI3
aI2
aI1
aI0
aI0
aI1
aI4
aI2
aI1
aI1
aI2
aI0
aI1
aI2
aI1
aI2
aI1
aI2
aI3
aI1
aI0
aI2
aI0
aI2
aI2
aI1
aI1
aI2
aI1
aI1
aI1
aI1
aI2
aI1
aI1
aI3
aI4
aI2
aI1
aI1
aI1
aI1
aI2
aI1
aI2
aI3
aI1
aI1
aI1
aI0
aI1
aI1
aI1
aI2
aI2
aI1
aI3
aI1
aI2
aI2
aI1
aI14
aI5
aI0
aI1
aI1
aI1
aI1
aI1
aI1
aI2
aI5
aI2
aI2
aI1
aI0
aI7
aI2
aI6
aI1
aI2
aI1
aI1
aI0
aI1
aI2
aI1
aI2
aI0
aI0
aI1
aI1
aI2
aI1
aI1
aI1
aI1
aI4
aI1
aI3
aI1
aI2
aI2
aI5
aI1
aI2
aI1
aI1
aI1
aI1
aI19
aI1
aI1
aI6
aI4
aI2
aI1
aI12
aI1
aI2
aI0
aI1
aI0
aI1
aI0
aI1
aI0
aI1
aI4
aI1
aI0
aI0
aI1
aI2
aI1
aI1
aI6
aI1
aI1
aI8
aI2
aI2
aI1
aI2
aI8
aI2
aI2
aI3
aI1
aI10
aI1
aI1
aI1
aI2
aI1
aI10
aI2
aI2
aI1
aI1
aI1
aI1
aI5
aI1
aI1
aI1
aI5
aI1
aI1
aI1
aI1
aI2
aI0
aI4
aI1
aI1
aI1
aI2
aI4
aI2
aI1
aI1
aI0
aI3
aI2
aI2
aI2
aI3
aI1
aI0
aI3
aI0
aI1
aI1
aI2
aI1
aI3
aI2
aI1
aI3
aI2
aI1
aI1
aI1
aI0
aI0
aI2
aI0
aI1
aI1
aI0
aI3
aI1
aI1
aI1
aI1
aI4
aI2
aI2
aI1
aI0
aI0
aI3
aI3
aI1
aI1
aI2
aI1
aI0
aI1
aI1
aI1
aI1
aI0
aI1
aI1
aI5
aI3
aI1
aI1
aI2
aI1
aI2
aI1
aI3
aI1
aI3
aI1
aI1
aI4
aI1
aI3
aI2
aI1
aI1
aI5
aI1
aI1
aI1
aI0
aI1
aI1
aI1
aI1
aI4
aI1
aI1
aI3
aI1
aI1
aI1
aI3
aI2
aI1
aI6
aI2
aI2
aI7
aI2
aI1
aI1
aI1
aI0
aI10
aI1
aI2
aI2
aI1
aI1
aI1
aI4
aI3
aI2
aI2
aI0
aI5
aI1
aI1
aI2
aI1
aI10
aI3
aI1
aI1
aI2
aI1
aI1
aI1
aI0
aI1
aI1
aI1
aI1
aI1
aI4
aI1
aI1
aI1
aI0
aI3
aI1
aI1
aI2
aI2
aI2
aI4
aI1
aI1
aI1
aI1
aI2
aI1
aI0
aI1
aI1
aI16
aI0
aI1
aI1
aI0
aI1
aI1
aI1
aI1
aI1
aI0
aI1
aI1
aI2
aI1
aI2
aI0
aI1
aI2
aI0
aI1
aI2
aI3
aI2
aI5
aI1
aI13
aI2
aI1
aI0
aI1
aI1
aI2
aI1
aI2
aI1
aI1
aI1
aI2
aI0
aI1
aI1
aI1
aI2
aI5
aI1
aI1
aI3
aI1
aI4
aI2
aI2
aI1
aI0
aI39
aI6
aI3
aI0
aI19
aI1
aI3
aI3
aI0
aI1
aI7
aI0
aI1
aI1
aI1
aI2
aI2
aI3
aI1
aI0
aI1
aI0
aI1
aI1
aI2
aI4
aI1
aI1
aI2
aI1
aI1
aI1
aI1
aI4
aI2
aI1
aI1
aI1
aI0
aI2
aI4
aI2
aI5
aI2
aI1
aI0
aI1
aI2
aI3
aI1
aI3
aI1
aI6
aI0
aI1
aI3
aI4
aI0
aI1
aI0
aI1
aI2
aI2
aI1
aI1
aI2
aI1
aI3
aI3
aI1
aI2
aI3
aI1
aI1
aI1
aI2
aI1
aI2
aI2
aI2
aI1
aI1
aI4
aI1
aI3
aI2
aI2
aI1
aI0
aI1
aI7
aI2
aI0
aI1
aI2
aI4
aI3
aI1
aI3
aI1
aI1
aI1
aI1
aI1
aI1
aI0
aI1
aI1
aI2
aI3
aI1
aI1
aI2
aI0
aI1
aI3
aI0
aI1
aI1
aI1
aI3
aI1
aI1
aI1
aI2
aI2
aI2
aI2
aI1
aI3
aI1
aI1
aI1
aI1
aI0
aI1
aI1
aI9
aI2
aI1
aI1
aI1
aI2
aI1
aI1
aI2
aI1
aI1
aI3
aI1
aI2
aI0
aI0
aI1
aI1
aI1
aI1
aI2
aI1
aI5
aI0
aI1
aI2
aI1
aI1
aI1
aI2
aI7
aI0
aI1
aI2
aI2
aI2
aI1
aI1
aI1
aI2
aI1
aI1
aI2
aI2
aI0
aI1
aI1
aI5
aI2
aI1
aI1
aI2
aI1
aI6
aI2
aI1
aI0
aI0
aI1
aI1
aI1
aI2
aI1
aI1
aI1
aI1
aI1
aI0
aI1
aI1
aI1
aI1
aI1
aI10
aI2
aI2
aI1
aI3
aI1
aI2
aI1
aI27
aI0
aI6
aI8
aI1
aI1
aI0
aI1
aI1
aI1
aI1
aI6
aI2
aI2
aI2
aI7
aI1
aI0
aI0
aI1
aI1
aI3
aI1
aI1
aI0
aI1
aI1
aI1
aI9
aI0
aI3
aI1
aI1
aI0
aI1
aI1
aI0
aI2
aI8
aI3
aI1
aI1
aI1
aI0
aI0
aI2
aI1
aI1
aI6
aI1
aI1
aI2
aI0
aI1
aI1
aI2
aI2
aI1
aI4
aI1
aI1
aI1
aI4
aI0
aI1
aI0
aI1
aI3
aI1
aI1
aI1
aI2
aI1
aI0
aI1
aI1
aI7
aI1
aI2
aI1
aI1
aI3
aI1
aI4
aI1
aI12
aI1
aI0
aI1
aI1
aI1
aI2
aI2
aI0
aI3
aI1
aI4
aI8
aI0
aI1
aI0
aI1
aI1
aI0
aI1
aI14
aI1
aI4
aI1
aI5
aI2
aI2
aI1
aI0
aI1
aI2
aI0
aI7
aI2
aI28
aI1
aI2
aI1
aI4
aI3
aI1
aI2
aI1
aI2
aI2
aI1
aI1
aI0
aI1
aI0
aI1
aI0
aI1
aI0
aI1
aI1
aI1
aI2
aI1
aI2
aI1
aI1
aI5
aI2
aI2
aI5
aI2
aI2
aI1
aI1
aI3
aI1
aI0
aI1
aI1
aI5
aI2
aI1
aI2
aI1
aI1
aI1
aI1
aI2
aI1
aI2
aI2
aI1
aI6
aI0
aI3
aI1
aI2
aI1
aI2
aI1
aI3
aI8
aI2
aI44
aI1
aI1
aI1
aI0
aI1
aI1
aI1
aI1
aI1
aI4
aI1
aI0
aI0
aI1
aI2
aI8
aI4
aI1
aI0
aI0
aI4
aI3
aI0
aI2
aI4
aI1
aI1
aI3
aI3
aI1
aI0
aI2
aI2
aI2
aI1
aI1
aI1
aI2
aI2
aI1
aI0
aI0
aI2
aI1
aI0
aI1
aI1
aI2
aI11
aI1
aI6
aI4
aI1
aI2
aI1
aI1
aI2
aI1
aI1
aI0
aI1
aI1
aI0
aI5
aI1
aI5
aI1
aI1
aI1
aI0
aI2
aI1
aI1
aI5
aI2
aI0
aI6
aI1
aI1
aI1
aI2
aI1
aI4
aI1
aI8
aI1
aI1
aI2
aI1
aI0
aI1
aI0
aI8
aI1
aI1
aI0
aI1
aI2
aI2
aI1
aI1
aI0
aI2
aI1
aI0
aI0
aI1
aI1
aI1
aI1
aI3
aI2
aI1
aI1
aI0
aI1
aI2
aI1
aI9
aI1
aI8
aI2
aI3
aI1
aI2
aI1
aI1
aI1
aI2
aI1
aI2
aI0
aI2
aI1
aI1
aI2
aI2
aI1
aI1
aI0
aI2
aI4
aI1
aI2
aI2
aI2
aI2
aI1
aI4
aI1
aI2
aI2
aI1
aI0
aI1
aI1
aI1
aI0
aI1
aI1
aI1
aI0
aI5
aI5
aI1
aI1
aI3
aI1
aI1
aI1
aI0
aI0
aI1
aI1
aI1
aI1
aI1
aI1
aI2
aI4
aI1
aI1
aI1
aI1
aI3
aI1
aI4
aI1
aI1
aI0
aI1
aI1
aI2
aI1
aI1
aI0
aI5
aI1
aI1
aI1
aI1
aI0
aI2
aI2
aI1
aI1
aI1
aI1
aI1
aI1
aI1
aI4
aI1
aI3
aI2
aI5
aI3
aI2
aI1
aI1
aI1
aI1
aI1
aI5
aI1
aI0
aI1
aI1
aI2
aI3
aI0
aI1
aI1
aI2
aI0
aI1
aI2
aI2
aI6
aI0
aI1
aI1
aI1
aI1
aI1
aI1
aI1
aI0
aI1
aI5
aI1
aI0
aI1
aI0
aI2
aI1
aI2
aI3
aI1
aI2
aI1
aI2
aI1
aI1
aI5
aI1
aI1
aI1
aI1
aI1
aI2
aI1
aI0
aI0
aI1
aI5
aI2
aI4
aI2
aI2
aI1
aI0
aI0
aI2
aI1
aI1
aI1
aI2
aI3
aI2
aI4
aI1
aI1
aI1
aI0
aI1
aI2
aI6
aI1
aI1
aI2
aI0
aI9
aI2
aI1
aI2
aI1
aI2
aI1
aI1
aI2
aI10
aI1
aI0
aI3
aI1
aI1
aI2
aI0
aI0
aI0
aI0
aI13
aI2
aI1
aI1
aI1
aI0
aI0
aI2
aI0
aI1
aI0
aI0
aI2
aI1
aI0
aI1
aI1
aI0
aI1
aI2
aI2
aI0
aI1
aI1
aI1
aI1
aI1
aI1
aI3
aI2
aI1
aI1
aI2
aI1
aI6
aI1
aI3
aI3
aI1
aI1
aI2
aI2
aI2
aI2
aI0
aI1
aI0
aI1
aI6
aI1
aI1
aI2
aI1
aI2
aI1
aI1
aI1
aI1
aI1
aI1
aI5
aI10
aI1
aI5
aI2
aI4
aI8
aI1
aI1
aI2
aI1
aI5
aI2
aI2
aI1
aI2
aI1
aI65
aI1
aI2
aI2
aI2
aI1
aI1
aI1
aI2
aI1
aI6
aI1
aI1
aI1
aI0
aI3
aI1
aI1
aI2
aI0
aI2
aI1
aI2
aI1
aI1
aI3
aI3
aI1
aI1
aI2
aI1
aI3
aI3
aI1
aI1
aI1
aI2
aI0
aI1
aI1
aI0
aI1
aI2
aI10
aI4
aI1
aI2
aI4
aI1
aI1
aI1
aI3
aI0
aI1
aI1
aI2
aI1
aI1
aI9
aI1
aI1
aI1
aI1
aI1
aI1
aI2
aI1
aI2
aI0
aI1
aI3
aI2
aI1
aI2
aI1
aI1
aI1
aI0
aI2
aI2
aI1
aI1
aI0
aI1
aI1
aI0
aI2
aI1
aI1
aI0
aI3
aI1
aI3
aI1
aI1
aI0
aI3
aI1
aI1
aI1
aI0
aI6
aI1
aI1
aI1
aI0
aI1
aI3
aI1
aI1
aI1
aI2
aI1
aI3
aI1
aI2
aI2
aI0
aI0
aI1
aI5
aI0
aI2
aI2
aI0
aI8
aI1
aI1
aI1
aI0
aI1
aI0
aI1
aI4
aI2
aI0
aI0
aI1
aI2
aI5
aI0
aI1
aI5
aI0
aI1
aI1
aI1
aI1
aI3
aI3
aI5
aI1
aI0
aI0
aI0
aI1
aI2
aI1
aI1
aI0
aI1
aI2
aI1
aI1
aI1
aI1
aI1
aI2
aI0
aI4
aI2
aI1
aI1
aI0
aI1
aI1
aI0
aI1
aI2
aI2
aI4
aI5
aI2
aI1
aI12
aI3
aI1
aI1
aI1
aI1
aI2
aI2
aI1
aI1
aI4
aI2
aI5
aI2
aI1
aI1
aI1
aI1
aI2
aI2
aI6
aI3
aI2
aI2
aI2
aI1
aI1
aI1
aI5
aI1
aI0
aI2
aI1
aI2
aI9
aI1
aI0
aI2
aI1
aI0
aI7
aI1
aI1
aI2
aI1
aI2
aI1
aI1
aI1
aI3
aI1
aI3
aI1
aI1
aI2
aI1
aI1
aI0
aI1
aI1
aI1
aI1
aI1
aI1
aI0
aI1
aI2
aI2
aI4
aI1
aI3
aI1
aI2
aI3
aI2
aI1
aI2
aI0
aI1
aI2
aI1
aI1
aI2
aI1
aI3
aI3
aI1
aI3
aI0
aI2
aI2
aI3
aI1
aI1
aI1
aI1
aI1
aI1
aI2
aI0
aI1
aI0
aI73
aI1
aI0
aI0
aI1
aI0
aI0
aI1
aI17
aI1
aI0
aI2
aI2
aI6
aI2
aI2
aI2
aI1
aI1
aI1
aI2
aI4
aI0
aI2
aI0
aI1
aI1
aI1
aI1
aI1
aI1
aI1
aI2
aI1
aI2
aI0
aI1
aI1
aI1
aI1
aI1
aI1
aI2
aI1
aI2
aI0
aI0
aI1
aI0
aI3
aI1
aI1
aI4
aI0
aI1
aI1
aI2
aI3
aI1
aI1
aI1
aI4
aI2
aI2
aI1
aI1
aI2
aI1
aI2
aI8
aI2
aI1
aI1
aI5
aI3
aI1
aI1
aI1
aI1
aI1
aI1
aI1
aI2
aI1
aI2
aI2
aI1
aI4
aI1
aI3
aI1
aI1
aI1
aI1
aI3
aI1
aI0
aI2
aI3
aI0
aI1
aI1
aI1
aI1
aI1
aI0
aI13
aI1
aI1
aI1
aI2
aI1
aI2
aI3
aI2
aI2
aI1
aI5
aI1
aI0
aI5
aI2
aI1
aI0
aI1
aI1
aI2
aI1
aI2
aI3
aI1
aI1
aI1
aI1
aI2
aI0
aI2
aI1
aI1
aI1
aI0
aI1
aI2
aI1
aI2
aI1
aI1
aI0
aI0
aI1
aI0
aI3
aI1
aI0
aI1
aI1
aI1
aI2
aI1
aI1
aI1
aI1
aI1
aI1
aI1
aI1
aI0
aI1
aI2
aI1
aI0
aI1
aI2
aI1
aI9
aI0
aI3
aI9
aI1
aI2
aI0
aI1
aI2
aI7
aI2
aI1
aI1
aI1
aI2
aI2
aI1
aI1
aI1
aI1
aI1
aI1
aI2
aI1
aI2
aI2
aI1
aI1
aI3
aI2
aI1
aI1
aI1
aI1
aI1
aI0
aI1
aI1
aI1
aI0
aI1
aI1
aI2
aI10
aI1
aI3
aI4
aI1
aI2
aI2
aI2
aI0
aI2
aI0
aI1
aI6
aI1
aI1
aI1
aI8
aI3
aI1
aI3
aI1
aI1
aI0
aI0
aI1
aI6
aI2
aI2
aI2
aI0
aI0
aI1
aI2
aI2
aI1
aI1
aI10
aI0
aI1
aI1
aI0
aI2
aI1
aI1
aI9
aI1
aI2
aI1
aI3
aI19
aI3
aI2
aI1
aI0
aI3
aI1
aI2
aI1
aI0
aI5
aI1
aI1
aI1
aI2
aI1
aI2
aI1
aI0
aI3
aI1
aI1
aI1
aI2
aI0
aI2
aI1
aI3
aI1
aI2
aI1
aI2
aI1
aI1
aI1
aI1
aI0
aI1
aI1
aI0
aI0
aI0
aI1
aI2
aI2
aI1
aI1
aI1
aI1
aI1
aI2
aI1
aI3
aI1
aI1
aI2
aI2
aI3
aI1
aI1
aI0
aI2
aI3
aI0
aI1
aI1
aI5
aI0
aI3
aI1
aI1
aI2
aI1
aI2
aI1
aI2
aI1
aI1
aI4
aI3
aI1
aI1
aI1
aI1
aI2
aI1
aI0
aI1
aI6
aI0
aI1
aI1
aI1
aI1
aI1
aI2
aI1
aI5
aI0
aI1
aI0
aI1
aI1
aI0
aI3
aI1
aI1
aI1
aI1
aI2
aI2
aI1
aI1
aI5
aI1
aI2
aI1
aI1
aI1
aI1
aI2
aI3
aI20
aI1
aI1
aI1
aI1
aI1
aI1
aI3
aI0
aI1
aI3
aI18
aI2
aI1
aI0
aI2
aI2
aI2
aI1
aI2
aI1
aI1
aI4
aI2
aI1
aI1
aI1
aI1
aI0
aI0
aI3
aI2
aI0
aI1
aI0
aI2
aI1
aI1
aI2
aI2
aI2
aI1
aI0
aI1
aI1
aI3
aI0
aI1
aI1
aI0
aI2
aI1
aI2
aI2
aI2
aI2
aI1
aI4
aI3
aI1
aI3
aI1
aI1
aI2
aI1
aI1
aI1
aI1
aI3
aI2
aI1
aI3
aI9
aI1
aI1
aI2
aI1
aI2
aI3
aI0
aI1
aI1
aI1
aI2
aI2
aI0
aI2
aI1
aI1
aI1
aI0
aI1
aI1
aI2
aI1
aI1
aI1
aI5
aI2
aI4
aI2
aI1
aI1
aI3
aI2
aI1
aI1
aI1
aI2
aI2
aI0
aI1
aI1
aI1
aI3
aI5
aI0
aI2
aI1
aI4
aI1
aI0
aI2
aI5
aI1
aI0
aI1
aI1
aI1
aI3
aI11
aI2
aI2
aI4
aI1
aI4
aI2
aI1
aI1
aI3
aI0
aI1
aI2
aI2
aI2
aI1
aI3
aI2
aI1
aI1
aI2
aI5
aI5
aI0
aI2
aI1
aI1
aI5
aI2
aI1
aI1
aI1
aI0
aI1
aI1
aI2
aI3
aI2
aI1
aI1
aI16
aI2
aI1
aI1
aI1
aI2
aI1
aI3
aI0
aI1
aI3
aI1
aI1
aI3
aI0
aI2
aI4
aI1
aI0
aI3
aI28
aI4
aI1
aI2
aI1
aI1
aI0
aI1
aI1
aI1
aI4
aI1
aI2
aI1
aI2
aI2
aI1
aI1
aI1
aI2
aI3
aI2
aI2
aI3
aI8
aI5
aI1
aI1
aI7
aI1
aI0
aI2
aI10
aI0
aI3
aI1
aI1
aI0
aI2
aI1
aI0
aI1
aI1
aI1
aI1
aI3
aI0
aI2
aI1
aI1
aI1
aI1
aI1
aI1
aI1
aI1
aI1
aI5
aI1
aI1
aI1
aI2
aI3
aI1
aI1
aI0
aI1
aI2
aI1
aI0
aI3
aI1
aI1
aI1
aI1
aI5
aI0
aI2
aI1
aI1
aI2
aI15
aI1
aI1
aI1
aI0
aI1
aI1
aI0
aI3
aI1
aI1
aI1
aI0
aI0
aI0
aI1
aI1
aI1
aI10
aI0
aI4
aI5
aI1
aI1
aI1
aI1
aI1
aI0
aI2
aI1
aI1
aI2
aI1
aI1
aI0
aI1
aI2
aI1
aI2
aI2
aI3
aI4
aI0
aI1
aI0
aI2
aI0
aI2
aI1
aI3
aI1
aI1
aI0
aI0
aI2
aI1
aI1
aI1
aI1
aI1
aI1
aI2
aI3
aI3
aI0
aI1
aI1
aI1
aI1
aI0
aI1
aI3
aI2
aI2
aI0
aI2
aI3
aI1
aI2
aI2
aI1
aI2
aI2
aI1
aI0
aI1
aI3
aI1
aI2
aI1
aI1
aI4
aI7
aI1
aI1
aI2
aI2
aI3
aI0
aI3
aI1
aI0
aI1
aI1
aI2
aI0
aI1
aI2
aI1
aI1
aI1
aI0
aI2
aI10
aI2
aI2
aI1
aI1
aI2
aI1
aI1
aI1
aI2
aI3
aI1
aI2
aI0
aI4
aI2
aI0
aI1
aI0
aI1
aI1
aI2
aI3
aI1
aI1
aI2
aI2
aI0
aI1
aI1
aI1
aI4
aI1
aI4
aI1
aI2
aI1
aI2
aI4
aI0
aI0
aI1
aI1
aI2
aI0
aI1
aI1
aI0
aI1
aI2
aI3
aI3
aI1
aI2
aI1
aI0
aI2
aI1
aI0
aI1
aI0
aI2
aI5
aI0
aI1
aI2
aI3
aI1
aI0
aI1
aI1
aI1
aI2
aI2
aI1
aI2
aI2
aI1
aI1
aI1
aI1
aI1
aI1
aI1
aI2
aI1
aI3
aI1
aI6
aI1
aI3
aI0
aI11
aI0
aI3
aI1
aI1
aI3
aI2
aI1
aI3
aI2
aI1
aI0
aI1
aI2
aI1
aI1
aI2
aI0
aI1
aI1
aI1
aI6
aI1
aI2
aI4
aI1
aI3
aI2
aI1
aI0
aI2
aI3
aI2
aI1
aI2
aI1
aI2
aI1
aI6
aI1
aI1
aI0
aI4
aI0
aI0
aI3
aI1
aI3
aI1
aI1
aI0
aI1
aI0
aI1
aI1
aI1
aI1
aI11
aI0
aI1
aI1
aI1
aI2
aI4
aI1
aI1
aI1
aI1
aI3
aI2
aI6
aI2
aI1
aI1
aI1
aI1
aI3
aI1
aI2
aI2
aI2
aI1
aI1
aI1
aI1
aI0
aI1
aI1
aI2
aI1
aI3
aI1
aI4
aI1
aI1
aI9
aI2
aI0
aI0
aI2
aI1
aI1
aI0
aI5
aI2
aI1
aI1
aI2
aI1
aI1
aI1
aI0
aI1
aI2
aI1
aI1
aI5
aI0
aI0
aI5
aI1
aI2
aI1
aI1
aI0
aI1
aI1
aI2
aI4
aI15
aI0
aI1
aI1
aI1
aI1
aI1
aI4
aI1
aI1
aI0
aI1
aI1
aI1
aI2
aI2
aI1
aI2
aI1
aI1
aI1
aI2
aI2
aI1
aI1
aI0
aI3
aI2
aI2
aI1
aI1
aI1
aI1
aI1
aI1
aI1
aI2
aI1
aI1
aI0
aI1
aI2
aI1
aI1
aI1
aI1
aI1
aI1
aI0
aI0
aI1
aI0
aI1
aI0
aI1
aI1
aI2
aI1
aI1
aI1
aI1
aI4
aI0
aI0
aI2
aI1
aI3
aI4
aI1
aI0
aI3
aI1
aI3
aI1
aI1
aI1
aI9
aI1
aI2
aI2
aI2
aI0
aI1
aI2
aI2
aI1
aI1
aI1
aI1
aI3
aI3
aI3
aI1
aI1
aI1
aI6
aI2
aI4
aI5
aI5
aI6
aI1
aI2
aI5
aI1
aI1
aI2
aI2
aI1
aI2
aI1
aI1
aI3
aI1
aI2
aI1
aI1
aI2
aI2
aI0
aI2
aI2
aI2
aI4
aI4
aI3
aI2
aI15
aI3
aI1
aI1
aI2
aI2
aI1
aI1
aI2
aI1
aI2
aI1
aI4
aI1
aI3
aI5
aI2
aI1
aI1
aI0
aI0
aI4
aI0
aI1
aI1
aI1
aI2
aI1
aI2
aI1
aI1
aI1
aI3
aI1
aI2
aI4
aI1
aI1
aI1
aI1
aI1
aI2
aI1
aI2
aI1
aI1
aI1
aI1
aI2
aI1
aI1
aI2
aI1
aI1
aI1
aI2
aI2
aI2
aI3
aI1
aI0
aI1
aI4
aI1
aI0
aI1
aI6
aI2
aI1
aI3
aI1
aI2
aI1
aI0
aI2
aI9
aI1
aI1
aI2
aI1
aI1
aI1
aI5
aI2
aI0
aI2
aI1
aI3
aI0
aI0
aI5
aI1
aI2
aI4
aI1
aI1
aI3
aI1
aI1
aI0
aI2
aI3
aI1
aI0
aI2
aI1
aI5
aI1
aI2
aI2
aI1
aI2
aI2
aI2
aI1
aI7
aI1
aI0
aI0
aI6
aI1
aI7
aI1
aI3
aI4
aI1
aI4
aI2
aI1
aI1
aI1
aI1
aI1
aI3
aI3
aI8
aI1
aI2
aI1
aI4
aI2
aI11
aI2
aI1
aI0
aI1
aI1
aI1
aI1
aI1
aI1
aI0
aI5
aI1
aI1
aI1
aI1
aI0
aI3
aI1
aI1
aI2
aI1
aI1
aI2
aI1
aI1
aI5
aI1
aI4
aI1
aI0
aI1
aI26
aI2
aI3
aI3
aI1
aI1
aI1
aI3
aI2
aI2
aI1
aI2
aI1
aI4
aI1
aI1
aI0
aI5
aI2
aI2
aI0
aI1
aI1
aI3
aI1
aI4
aI1
aI1
aI1
aI1
aI0
aI1
aI3
aI3
aI0
aI1
aI2
aI1
aI2
aI0
aI2
aI2
aI1
aI3
aI2
aI1
aI1
aI5
aI2
aI4
aI3
aI2
aI1
aI1
aI0
aI0
aI1
aI1
aI3
aI0
aI2
aI1
aI4
aI16
aI1
aI0
aI4
aI2
aI0
aI1
aI3
aI1
aI9
aI0
aI3
aI1
aI1
aI2
aI3
aI3
aI0
aI25
aI3
aI0
aI1
aI1
aI4
aI1
aI3
aI1
aI3
aI2
aI1
aI2
aI1
aI1
aI1
aI1
aI1
aI1
aI3
aI0
aI1
aI1
aI1
aI1
aI3
aI2
aI2
aI1
aI1
aI3
aI1
aI1
aI2
aI1
aI1
aI1
aI2
aI5
aI1
aI1
aI3
aI1
aI2
aI1
aI1
aI5
aI2
aI3
aI1
aI2
aI1
aI1
aI1
aI7
aI1
aI1
aI0
aI3
aI1
aI15
aI1
aI0
aI1
aI0
aI0
aI1
aI1
aI1
aI1
aI2
aI0
aI1
aI3
aI2
aI2
aI1
aI0
aI0
aI1
aI1
aI0
aI2
aI0
aI1
aI2
aI0
aI1
aI1
aI0
aI4
aI1
aI0
aI3
aI2
aI1
aI1
aI2
aI1
aI2
aI7
aI0
aI0
aI0
aI1
aI2
aI0
aI2
aI1
aI1
aI1
aI2
aI1
aI1
aI3
aI1
aI1
aI4
aI2
aI0
aI2
aI0
aI0
aI1
aI2
aI1
aI1
aI3
aI2
aI1
aI4
aI1
aI5
aI2
aI1
aI1
aI1
aI0
aI0
aI2
aI1
aI1
aI6
aI0
aI1
aI1
aI4
aI2
aI1
aI1
aI1
aI2
aI3
aI1
aI1
aI0
aI3
aI7
aI1
aI2
aI1
aI1
aI1
aI3
aI4
aI1
aI2
aI0
aI1
aI2
aI3
aI0
aI3
aI19
aI6
aI1
aI1
aI3
aI2
aI1
aI1
aI1
aI1
aI12
aI12
aI2
aI0
aI6
aI3
aI0
aI5
aI1
aI0
aI1
aI1
aI1
aI9
aI1
aI0
aI1
aI1
aI1
aI1
aI1
aI1
aI1
aI1
aI1
aI1
aI1
aI2
aI1
aI1
aI2
aI0
aI2
aI3
aI0
aI3
aI3
aI2
aI2
aI1
aI4
aI1
aI3
aI3
aI3
aI1
aI0
aI0
aI2
aI3
aI1
aI1
aI1
aI1
aI1
aI2
aI1
aI1
aI8
aI1
aI1
aI1
aI1
aI1
aI2
aI0
aI2
aI0
aI1
aI0
aI1
aI0
aI1
aI1
aI2
aI1
aI0
aI2
aI0
aI1
aI1
aI3
aI1
aI0
aI3
aI1
aI2
aI2
aI3
aI2
aI1
aI2
aI1
aI1
aI2
aI1
aI1
aI2
aI3
aI1
aI1
aI1
aI1
aI1
aI1
aI2
aI1
aI1
aI0
aI0
aI1
aI3
aI3
aI2
aI2
aI1
aI3
aI0
aI1
aI1
aI1
aI1
aI1
aI1
aI0
aI3
aI5
aI8
aI1
aI1
aI2
aI1
aI2
aI0
aI0
aI2
aI4
aI1
aI2
aI1
aI1
aI1
aI1
aI1
aI2
aI4
aI1
aI7
aI2
aI5
aI1
aI1
aI1
aI5
aI2
aI2
aI2
aI1
aI1
aI3
aI1
aI2
aI1
aI0
aI1
aI2
aI3
aI2
aI2
aI0
aI0
aI1
aI3
aI1
aI1
aI1
aI6
aI4
aI1
aI0
aI7
aI0
aI0
aI1
aI1
aI1
aI2
aI1
aI1
aI1
aI1
aI1
aI2
aI1
aI2
aI2
aI4
aI3
aI1
aI0
aI1
aI1
aI1
aI1
aI4
aI2
aI2
aI1
aI7
aI1
aI3
aI1
aI2
aI0
aI2
aI1
aI0
aI1
aI0
aI4
aI1
aI1
aI1
aI3
aI1
aI1
aI1
aI2
aI0
aI1
aI0
aI2
aI0
aI2
aI1
aI0
aI0
aI4
aI1
aI0
aI0
aI1
aI1
aI1
aI0
aI2
aI1
aI1
aI1
aI2
aI1
aI3
aI1
aI0
aI3
aI1
aI1
aI4
aI0
aI3
aI3
aI3
aI1
aI1
aI5
aI4
aI1
aI2
aI3
aI2
aI1
aI1
aI1
aI6
aI1
aI1
aI4
aI65
aI3
aI6
aI5
aI3
aI5
aI1
aI1
aI1
aI2
aI1
aI4
aI1
aI1
aI2
aI1
aI0
aI0
aI5
aI1
aI1
aI2
aI3
aI1
aI10
aI0
aI2
aI1
aI1
aI5
aI1
aI1
aI2
aI1
aI1
aI2
aI1
aI3
aI1
aI1
aI3
aI2
aI2
aI3
aI1
aI1
aI2
aI1
aI0
aI4
aI1
aI1
aI1
aI1
aI0
aI3
aI25
aI1
aI0
aI3
aI0
aI1
aI0
aI0
aI1
aI2
aI1
aI1
aI1
aI1
aI1
aI1
aI1
aI2
aI0
aI2
aI1
aI5
aI1
aI2
aI1
aI4
aI1
aI2
aI3
aI3
aI1
aI1
aI0
aI1
aI1
aI0
aI1
aI1
aI2
aI3
aI1
aI1
aI6
aI0
aI2
aI5
aI1
aI1
aI1
aI0
aI1
aI2
aI1
aI4
aI1
aI1
aI0
aI4
aI1
aI8
aI3
aI1
aI13
aI0
aI2
aI1
aI4
aI1
aI3
aI0
aI5
aI1
aI2
aI1
aI2
aI0
aI0
aI1
aI1
aI2
aI1
aI1
aI3
aI1
aI1
aI0
aI2
aI1
aI2
aI3
aI2
aI2
aI1
aI6
aI1
aI2
aI0
aI2
aI1
aI1
aI1
aI1
aI2
aI1
aI5
aI19
aI2
aI0
aI2
aI1
aI0
aI2
aI5
aI2
aI1
aI0
aI1
aI0
aI3
aI1
aI1
aI1
aI1
aI0
aI2
aI1
aI6
aI1
aI1
aI1
aI2
aI1
aI1
aI1
aI4
aI1
aI3
aI2
aI1
aI1
aI2
aI1
aI0
aI0
aI1
aI2
aI1
aI1
aI5
aI4
aI1
aI2
aI1
aI2
aI0
aI1
aI0
aI1
aI2
aI1
aI5
aI1
aI0
aI1
aI1
aI1
aI2
aI4
aI1
aI2
aI0
aI1
aI2
aI1
aI0
aI1
aI1
aI0
aI1
aI1
aI1
aI0
aI3
aI4
aI4
aI0
aI2
aI2
aI2
aI2
aI1
aI0
aI3
aI1
aI3
aI0
aI4
aI2
aI1
aI2
aI2
aI0
aI0
aI1
aI1
aI2
aI1
aI2
aI0
aI1
aI2
aI0
aI1
aI0
aI0
aI1
aI1
aI1
aI3
aI1
aI1
aI1
aI1
aI1
aI1
aI1
aI1
aI1
aI4
aI1
aI0
aI0
aI3
aI1
aI0
aI4
aI0
aI3
aI1
aI1
aI1
aI1
aI1
aI1
aI2
aI2
aI1
aI1
aI2
aI2
aI1
aI2
aI1
aI1
aI3
aI0
aI0
aI3
aI2
aI2
aI1
aI1
aI3
aI2
aI1
aI0
aI2
aI3
aI2
aI2
aI1
aI1
aI3
aI0
aI1
aI1
aI1
aI0
aI1
aI6
aI1
aI1
aI1
aI0
aI1
aI1
aI1
aI2
aI0
aI3
aI4
aI2
aI3
aI1
aI1
aI1
aI2
aI0
aI1
aI1
aI1
aI1
aI3
aI0
aI1
aI16
aI1
aI1
aI3
aI1
aI5
aI1
aI1
aI0
aI4
aI1
aI5
aI2
aI2
aI1
aI1
aI1
aI1
aI1
aI1
aI0
aI0
aI5
aI2
aI1
aI3
aI2
aI1
aI3
aI2
aI3
aI0
aI1
aI2
aI2
aI5
aI1
aI0
aI0
aI2
aI8
aI0
aI0
aI1
aI2
aI7
aI1
aI2
aI1
aI1
aI1
aI1
aI1
aI1
aI1
aI1
aI2
aI1
aI1
aI0
aI1
aI1
aI1
aI2
aI1
aI11
aI0
aI2
aI9
aI2
aI0
aI1
aI0
aI1
aI1
aI1
aI2
aI1
aI1
aI1
aI1
aI1
aI2
aI1
aI2
aI2
aI1
aI24
aI2
aI2
aI1
aI0
aI1
aI2
aI1
aI1
aI1
aI1
aI0
aI1
aI1
aI1
aI0
aI4
aI1
aI1
aI2
aI2
aI0
aI3
aI1
aI0
aI0
aI1
aI1
aI1
aI1
aI1
aI22
aI1
aI5
aI1
aI1
aI3
aI2
aI1
aI2
aI1
aI1
aI2
aI6
aI1
aI1
aI2
aI7
aI1
aI1
aI1
aI1
aI2
aI3
aI2
aI0
aI1
aI1
aI1
aI1
aI1
aI2
aI0
aI1
aI1
aI1
aI2
aI2
aI1
aI1
aI4
aI0
aI1
aI2
aI1
aI2
aI2
aI0
aI1
aI1
aI3
aI0
aI1
aI1
aI1
aI1
aI1
aI0
aI1
aI4
aI1
aI1
aI1
aI5
aI1
aI1
aI1
aI2
aI1
aI4
aI4
aI1
aI1
aI1
aI1
aI1
aI1
aI2
aI8
aI1
aI1
aI1
aI0
aI8
aI0
aI1
aI2
aI1
aI2
aI1
aI2
aI1
aI0
aI3
aI2
aI1
aI1
aI1
aI1
aI1
aI1
aI1
aI3
aI1
aI0
aI1
aI0
aI0
aI3
aI1
aI1
aI2
aI6
aI1
aI1
aI1
aI1
aI2
aI8
aI3
aI1
aI1
aI3
aI2
aI1
aI2
aI0
aI7
aI1
aI3
aI0
aI0
aI1
aI5
aI0
aI1
aI1
aI0
aI1
aI2
aI1
aI2
aI1
aI1
aI2
aI2
aI1
aI2
aI1
aI0
aI2
aI2
aI5
aI1
aI2
aI4
aI2
aI3
aI1
aI2
aI0
aI1
aI2
aI1
aI2
aI2
aI1
aI1
aI1
aI1
aI1
aI1
aI5
aI1
aI0
aI1
aI1
aI3
aI1
aI5
aI1
aI1
aI3
aI1
aI6
aI1
aI1
aI3
aI2
aI0
aI6
aI1
aI1
aI1
aI3
aI1
aI1
aI1
aI2
aI1
aI1
aI2
aI1
aI1
aI8
aI1
aI1
aI2
aI0
aI1
aI0
aI1
aI4
aI1
aI0
aI1
aI1
aI1
aI0
aI1
aI0
aI1
aI1
aI0
aI4
aI1
aI1
aI0
aI1
aI1
aI3
aI1
aI3
aI0
aI1
aI1
aI1
aI3
aI3
aI1
aI3
aI2
aI2
aI1
aI2
aI5
aI9
aI1
aI1
aI1
aI1
aI1
aI6
aI1
aI1
aI3
aI1
aI1
aI1
aI2
aI2
aI2
aI1
aI2
aI1
aI1
aI0
aI1
aI1
aI1
aI1
aI1
aI2
aI1
aI1
aI2
aI3
aI1
aI2
aI3
aI1
aI1
aI0
aI1
aI1
aI1
aI1
aI2
aI1
aI3
aI1
aI1
aI1
aI0
aI1
aI2
aI1
aI1
aI4
aI4
aI1
aI0
aI1
aI1
aI1
aI4
aI1
aI1
aI3
aI4
aI1
aI2
aI1
aI3
aI1
aI1
aI1
aI1
aI1
aI1
aI1
aI3
aI0
aI8
aI1
aI2
aI4
aI1
aI1
aI0
aI1
aI0
aI1
aI0
aI1
aI1
aI1
aI2
aI3
aI2
aI2
aI1
aI3
aI1
aI1
aI0
aI2
aI2
aI2
aI0
aI1
aI1
aI1
aI2
aI2
aI0
aI2
aI1
aI2
aI8
aI1
aI2
aI0
aI1
aI1
aI1
aI1
aI1
aI1
aI1
aI0
aI1
aI1
aI1
aI0
aI1
aI1
aI1
aI1
aI1
aI0
aI1
aI0
aI1
aI1
aI1
aI3
aI2
aI1
aI0
aI1
aI1
aI1
aI1
aI6
aI1
aI1
aI1
aI1
aI1
aI0
aI1
aI1
aI3
aI2
aI1
aI4
aI4
aI1
aI8
aI1
aI7
aI1
aI2
aI2
aI2
aI1
aI2
aI6
aI1
aI1
aI1
aI2
aI1
aI1
aI1
aI6
aI1
aI3
aI2
aI1
aI1
aI2
aI2
aI1
aI1
aI1
aI2
aI1
aI1
aI2
aI3
aI2
aI2
aI1
aI1
aI11
aI2
aI0
aI2
aI0
aI2
aI0
aI8
aI1
aI1
aI2
aI2
aI4
aI1
aI1
aI3
aI4
aI2
aI1
aI1
aI2
aI1
aI2
aI1
aI2
aI1
aI1
aI2
aI6
aI1
aI2
aI2
aI1
aI1
aI3
aI1
aI1
aI1
aI3
aI1
aI0
aI7
aI1
aI4
aI0
aI1
aI5
aI0
aI1
aI0
aI1
aI2
aI1
aI1
aI1
aI2
aI1
aI1
aI1
aI3
aI1
aI2
aI1
aI1
aI1
aI2
aI1
aI3
aI1
aI4
aI0
aI2
aI1
aI1
aI0
aI1
aI3
aI2
aI1
aI2
aI1
aI2
aI1
aI2
aI1
aI2
aI3
aI3
aI1
aI0
aI1
aI0
aI1
aI1
aI3
aI15
aI4
aI1
aI3
aI1
aI1
aI1
aI2
aI2
aI1
aI0
aI2
aI1
aI0
aI5
aI2
aI1
aI1
aI1
aI1
aI1
aI2
aI1
aI1
aI1
aI1
aI2
aI1
aI2
aI1
aI3
aI0
aI11
aI12
aI4
aI2
aI1
aI3
aI1
aI0
aI0
aI3
aI0
aI1
aI1
aI2
aI1
aI1
aI1
aI2
aI2
aI3
aI12
aI2
aI1
aI2
aI1
aI1
aI1
aI1
aI1
aI1
aI4
aI0
aI1
aI1
aI0
aI1
aI8
aI4
aI1
aI2
aI1
aI1
aI1
aI3
aI0
aI0
aI3
aI1
aI1
aI1
aI1
aI1
aI1
aI3
aI1
aI1
aI1
aI1
aI1
aI2
aI1
aI1
aI1
aI4
aI3
aI4
aI2
aI0
aI1
aI3
aI1
aI2
aI22
aI0
aI1
aI2
aI2
aI1
aI1
aI5
aI0
aI2
aI1
aI1
aI4
aI1
aI1
aI0
aI5
aI2
aI3
aI7
aI3
aI0
aI0
aI1
aI1
aI2
aI1
aI8
aI1
aI1
aI3
aI2
aI1
aI1
aI1
aI2
aI0
aI1
aI1
aI2
aI1
aI1
aI2
aI2
aI1
aI0
aI1
aI5
aI2
aI1
aI1
aI2
aI2
aI1
aI1
aI1
aI1
aI1
aI0
aI2
aI1
aI1
aI2
aI0
aI2
aI8
aI1
aI1
aI1
aI4
aI18
aI1
aI4
aI0
aI1
aI2
aI1
aI1
aI1
aI1
aI1
aI2
aI4
aI4
aI1
aI2
aI1
aI0
aI5
aI1
aI0
aI3
aI1
aI0
aI0
aI2
aI1
aI1
aI1
aI2
aI1
aI1
aI1
aI2
aI1
aI0
aI2
aI1
aI2
aI1
aI1
aI1
aI2
aI2
aI2
aI1
aI1
aI0
aI1
aI0
aI1
aI0
aI2
aI1
aI2
aI1
aI1
aI2
aI1
aI1
aI1
aI1
aI1
aI2
aI1
aI2
aI2
aI2
aI2
aI1
aI2
aI1
aI1
aI6
aI2
aI1
aI2
aI1
aI2
aI2
aI1
aI0
aI0
aI1
aI1
aI1
aI1
aI1
aI1
aI3
aI3
aI1
aI2
aI2
aI2
aI2
aI1
aI1
aI1
aI2
aI2
aI2
aI2
aI2
aI4
aI1
aI2
aI2
aI1
aI1
aI0
aI2
aI9
aI2
aI6
aI2
aI1
aI1
aI0
aI2
aI3
aI0
aI1
aI2
aI2
aI0
aI1
aI1
aI2
aI2
aI1
aI1
aI0
aI2
aI1
aI4
aI1
aI4
aI1
aI4
aI2
aI1
aI1
aI6
aI0
aI1
aI1
aI2
aI2
aI0
aI2
aI0
aI1
aI1
aI1
aI2
aI1
aI1
aI1
aI4
aI1
aI1
aI1
aI1
aI1
aI2
aI1
aI2
aI3
aI1
aI2
aI3
aI1
aI1
aI0
aI1
aI2
aI1
aI3
aI1
aI1
aI0
aI1
aI1
aI1
aI1
aI0
aI1
aI1
aI4
aI0
aI2
aI1
aI2
aI4
aI3
aI2
aI8
aI5
aI0
aI1
aI0
aI3
aI2
aI1
aI2
aI1
aI1
aI2
aI1
aI1
aI1
aI0
aI1
aI2
aI1
aI1
aI1
aI1
aI5
aI0
aI1
aI1
aI1
aI2
aI1
aI1
aI3
aI1
aI5
aI4
aI0
aI2
aI1
aI1
aI0
aI7
aI2
aI2
aI1
aI1
aI1
aI2
aI1
aI3
aI1
aI4
aI0
aI0
aI1
aI1
aI1
aI1
aI0
aI0
aI0
aI2
aI1
aI2
aI1
aI1
aI1
aI1
aI1
aI0
aI1
aI1
aI1
aI3
aI1
aI0
aI2
aI1
aI1
aI1
aI0
aI2
aI3
aI1
aI1
aI1
aI2
aI1
aI2
aI2
aI1
aI1
aI0
aI1
aI1
aI0
aI3
aI2
aI0
aI1
aI2
aI15
aI12
aI3
aI0
aI2
aI2
aI0
aI1
aI2
aI2
aI1
aI2
aI2
aI2
aI1
aI1
aI3
aI1
aI1
aI2
aI0
aI2
aI2
aI0
aI1
aI1
aI2
aI2
aI1
aI1
aI2
aI1
aI1
aI2
aI1
aI7
aI1
aI1
aI4
aI2
aI1
aI4
aI2
aI2
aI0
aI1
aI0
aI2
aI2
aI1
aI1
aI1
aI11
aI1
aI1
aI6
aI2
aI1
aI0
aI0
aI1
aI1
aI1
aI2
aI3
aI1
aI0
aI3
aI2
aI1
aI1
aI1
aI1
aI1
aI1
aI4
aI1
aI4
aI1
aI6
aI1
aI2
aI2
aI1
aI1
aI0
aI1
aI5
aI2
aI1
aI1
aI0
aI1
aI1
aI1
aI0
aI1
aI1
aI0
aI0
aI5
aI2
aI1
aI2
aI2
aI1
aI3
aI2
aI1
aI6
aI1
aI2
aI2
aI1
aI2
aI2
aI1
aI0
aI0
aI1
aI2
aI2
aI2
aI2
aI1
aI1
aI1
aI5
aI1
aI4
aI2
aI1
aI1
aI1
aI0
aI2
aI2
aI1
aI4
aI0
aI1
aI10
aI1
aI1
aI1
aI1
aI1
aI1
aI0
aI1
aI1
aI2
aI1
aI0
aI2
aI1
aI0
aI2
aI1
aI1
aI2
aI2
aI1
aI1
aI2
aI1
aI2
aI1
aI2
aI2
aI2
aI1
aI0
aI4
aI1
aI1
aI1
aI5
aI0
aI1
aI1
aI2
aI1
aI0
aI1
aI2
aI2
aI1
aI0
aI1
aI3
aI0
aI2
aI1
aI4
aI29
aI0
aI2
aI1
aI1
aI2
aI1
aI2
aI1
aI1
aI2
aI2
aI1
aI5
aI1
aI1
aI2
aI1
aI1
aI2
aI1
aI2
aI0
aI2
aI1
aI1
aI1
aI0
aI1
aI2
aI1
aI1
aI1
aI1
aI0
aI1
aI0
aI1
aI1
aI1
aI1
aI1
aI1
aI1
aI1
aI1
aI3
aI4
aI2
aI2
aI0
aI1
aI17
aI1
aI0
aI2
aI0
aI0
aI0
aI2
aI4
aI2
aI2
aI1
aI3
aI1
aI1
aI1
aI1
aI1
aI3
aI4
aI5
aI1
aI1
aI0
aI1
aI3
aI2
aI1
aI1
aI2
aI1
aI1
aI1
aI1
aI1
aI1
aI2
aI1
aI1
aI3
aI1
aI0
aI0
aI1
aI4
aI1
aI1
aI1
aI3
aI3
aI4
aI2
aI1
aI8
aI0
aI2
aI1
aI1
aI1
aI4
aI3
aI0
aI1
aI1
aI3
aI2
aI5
aI1
aI1
aI1
aI1
aI1
aI1
aI1
aI3
aI1
aI1
aI1
aI1
aI1
aI0
aI1
aI2
aI1
aI1
aI0
aI0
aI6
aI2
aI15
aI2
aI1
aI0
aI2
aI1
aI1
aI1
aI0
aI1
aI1
aI2
aI0
aI1
aI0
aI3
aI2
aI2
aI1
aI0
aI0
aI1
aI0
aI2
aI2
aI1
aI1
aI2
aI3
aI0
aI3
aI3
aI0
aI2
aI0
aI2
aI1
aI2
aI2
aI1
aI5
aI1
aI1
aI1
aI4
aI1
aI2
aI1
aI1
aI1
aI0
aI19
aI1
aI1
aI0
aI1
aI1
aI1
aI0
aI0
aI2
aI1
aI3
aI1
aI1
aI1
aI1
aI2
aI1
aI1
aI3
aI3
aI1
aI7
aI2
aI2
aI1
aI16
aI2
aI1
aI3
aI1
aI1
aI1
aI6
aI1
aI4
aI1
aI2
aI1
aI3
aI2
aI0
aI2
aI2
aI6
aI0
aI7
aI2
aI7
aI1
aI2
aI2
aI7
aI1
aI2
aI0
aI0
aI1
aI2
aI0
aI1
aI1
aI2
aI2
aI2
aI0
aI1
aI1
aI1
aI1
aI1
aI0
aI3
aI2
aI1
aI2
aI2
aI2
aI1
aI1
aI1
aI1
aI6
aI4
aI1
aI1
aI1
aI10
aI0
aI2
aI2
aI1
aI1
aI2
aI1
aI1
aI0
aI3
aI1
aI1
aI7
aI1
aI4
aI7
aI1
aI2
aI1
aI1
aI1
aI1
aI1
aI1
aI1
aI2
aI2
aI0
aI1
aI1
aI9
aI1
aI3
aI3
aI2
aI2
aI0
aI1
aI2
aI1
aI1
aI2
aI3
aI1
aI1
aI2
aI0
aI3
aI2
aI5
aI1
aI1
aI0
aI8
aI0
aI1
aI2
aI1
aI0
aI1
aI1
aI1
aI3
aI1
aI2
aI2
aI1
aI2
aI2
aI1
aI1
aI1
aI1
aI4
aI4
aI2
aI1
aI1
aI1
aI1
aI1
aI1
aI2
aI7
aI1
aI1
aI0
aI1
aI4
aI1
aI0
aI1
aI0
aI3
aI0
aI2
aI1
aI0
aI3
aI0
aI1
aI2
aI1
aI2
aI1
aI1
aI3
aI5
aI1
aI3
aI1
aI1
aI0
aI1
aI0
aI3
aI3
aI0
aI1
aI1
aI1
aI1
aI0
aI2
aI3
aI1
aI1
aI0
aI1
aI1
aI2
aI0
aI4
aI1
aI1
aI1
aI2
aI2
aI1
aI1
aI1
aI2
aI1
aI1
aI2
aI1
aI1
aI0
aI0
aI2
aI0
aI3
aI2
aI3
aI12
aI1
aI0
aI1
aI1
aI1
aI1
aI1
aI1
aI2
aI1
aI0
aI1
aI2
aI0
aI1
aI2
aI2
aI1
aI3
aI1
aI4
aI1
aI1
aI2
aI1
aI3
aI1
aI0
aI1
aI2
aI3
aI1
aI4
aI2
aI4
aI2
aI1
aI1
aI1
aI12
aI0
aI0
aI2
aI5
aI0
aI2
aI8
aI1
aI1
aI0
aI0
aI0
aI5
aI2
aI4
aI0
aI1
aI1
aI2
aI1
aI1
aI1
aI4
aI1
aI1
aI1
aI0
aI2
aI2
aI0
aI1
aI4
aI2
aI0
aI0
aI1
aI3
aI3
aI7
aI0
aI1
aI1
aI1
aI1
aI0
aI1
aI2
aI4
aI3
aI2
aI2
aI1
aI4
aI4
aI1
aI1
aI4
aI0
aI2
aI1
aI1
aI1
aI1
aI1
aI2
aI2
aI4
aI3
aI2
aI0
aI1
aI0
aI1
aI1
aI0
aI0
aI2
aI1
aI2
aI2
aI5
aI1
aI1
aI0
aI0
aI1
aI1
aI2
aI0
aI4
aI1
aI1
aI1
aI1
aI2
aI1
aI2
aI1
aI2
aI1
aI1
aI1
aI1
aI5
aI0
aI3
aI5
aI0
aI1
aI2
aI1
aI1
aI1
aI0
aI1
aI1
aI4
aI2
aI4
aI2
aI1
aI3
aI1
aI1
aI1
aI3
aI21
aI0
aI0
aI2
aI1
aI2
aI1
aI4
aI2
aI1
aI0
aI0
aI5
aI3
aI1
aI2
aI0
aI1
aI4
aI1
aI1
aI1
aI1
aI1
aI2
aI13
aI1
aI2
aI1
aI1
aI1
aI0
aI1
aI1
aI1
aI7
aI2
aI2
aI1
aI1
aI0
aI4
aI1
aI2
aI1
aI0
aI1
aI5
aI0
aI0
aI0
aI5
aI2
aI1
aI3
aI1
aI1
aI2
aI1
aI1
aI1
aI1
aI1
aI1
aI2
aI3
aI1
aI1
aI1
aI1
aI1
aI4
aI2
aI1
aI2
aI2
aI2
aI4
aI4
aI0
aI5
aI1
aI1
aI2
aI1
aI2
aI4
aI1
aI5
aI2
aI1
aI1
aI25
aI1
aI2
aI3
aI1
aI2
aI1
aI1
aI1
aI1
aI10
aI1
aI1
aI0
aI3
aI1
aI2
aI2
aI1
aI2
aI2
aI1
aI1
aI1
aI1
aI2
aI0
aI1
aI0
aI1
aI1
aI0
aI4
aI1
aI0
aI2
aI2
aI1
aI0
aI1
aI1
aI1
aI0
aI1
aI1
aI1
aI0
aI1
aI1
aI2
aI0
aI2
aI1
aI1
aI0
aI1
aI0
aI1
aI2
aI0
aI3
aI2
aI1
aI1
aI0
aI7
aI1
aI3
aI1
aI1
aI2
aI4
aI0
aI3
aI1
aI4
aI2
aI1
aI2
aI1
aI0
aI2
aI3
aI3
aI1
aI1
aI1
aI0
aI1
aI2
aI3
aI0
aI1
aI4
aI1
aI2
aI1
aI1
aI2
aI0
aI1
aI1
aI2
aI1
aI2
aI1
aI7
aI1
aI0
aI2
aI1
aI1
aI1
aI1
aI1
aI1
aI1
aI1
aI6
aI1
aI5
aI1
aI2
aI1
aI4
aI3
aI0
aI1
aI1
aI3
aI2
aI1
aI5
aI2
aI1
aI1
aI5
aI2
aI2
aI1
aI2
aI17
aI3
aI0
aI0
aI2
aI0
aI1
aI0
aI1
aI2
aI2
aI1
aI1
aI1
aI2
aI2
aI2
aI2
aI1
aI7
aI1
aI1
aI0
aI9
aI1
aI1
aI2
aI1
aI2
aI1
aI1
aI3
aI1
aI2
aI0
aI1
aI4
aI3
aI3
aI3
aI4
aI6
aI1
aI2
aI3
aI1
aI2
aI2
aI3
aI1
aI0
aI1
aI2
aI1
aI1
aI2
aI1
aI1
aI1
aI0
aI1
aI0
aI2
aI6
aI1
aI5
aI1
aI0
aI0
aI1
aI0
aI1
aI1
aI0
aI1
aI2
aI2
aI1
aI0
aI12
aI23
aI1
aI0
aI1
aI1
aI0
aI1
aI2
aI1
aI5
aI1
aI0
aI4
aI2
aI1
aI2
aI0
aI2
aI2
aI2
aI0
aI2
aI8
aI2
aI6
aI1
aI1
aI0
aI0
aI2
aI8
aI3
aI0
aI1
aI0
aI2
aI1
aI1
aI0
aI1
aI2
aI4
aI2
aI1
aI1
aI9
aI2
aI1
aI1
aI5
aI0
aI2
aI1
aI1
aI1
aI0
aI1
aI2
aI2
aI1
aI1
aI3
aI4
aI1
aI1
aI0
aI1
aI1
aI1
aI3
aI1
aI0
aI3
aI1
aI2
aI26
aI1
aI1
aI1
aI1
aI5
aI2
aI1
aI1
aI2
aI0
aI1
aI1
aI2
aI0
aI0
aI2
aI2
aI3
aI2
aI2
aI2
aI2
aI1
aI1
aI1
aI1
aI1
aI2
aI1
aI3
aI0
aI2
aI1
aI1
aI0
aI3
aI6
aI3
aI2
aI1
aI1
aI0
aI1
aI0
aI1
aI1
aI6
aI1
aI1
aI2
aI10
aI1
aI1
aI2
aI1
aI1
aI5
aI3
aI1
aI1
aI1
aI1
aI2
aI1
aI5
aI0
aI0
aI2
aI0
aI1
aI7
aI1
aI1
aI1
aI0
aI2
aI50
aI1
aI1
aI3
aI1
aI2
aI4
aI2
aI2
aI1
aI2
aI0
aI2
aI1
aI1
aI1
aI1
aI1
aI1
aI1
aI2
aI2
aI6
aI1
aI0
aI1
aI2
aI4
aI2
aI2
aI5
aI0
aI2
aI3
aI1
aI0
aI1
aI1
aI2
aI1
aI4
aI2
aI3
aI2
aI0
aI0
aI1
aI1
aI0
aI2
aI1
aI2
aI2
aI1
aI1
aI2
aI5
aI1
aI0
aI1
aI0
aI2
aI1
aI1
aI3
aI2
aI2
aI1
aI1
aI1
aI1
aI10
aI1
aI8
aI1
aI1
aI1
aI1
aI1
aI4
aI1
aI1
aI2
aI0
aI0
aI5
aI0
aI10
aI1
aI4
aI4
aI2
aI0
aI2
aI5
aI140
aI3
aI1
aI2
aI2
aI2
aI1
aI1
aI2
aI1
aI1
aI0
aI1
aI3
aI1
aI1
aI3
aI0
aI1
aI1
aI1
aI0
aI1
aI3
aI1
aI1
aI2
aI1
aI1
aI3
aI1
aI1
aI1
aI1
aI1
aI20
aI1
aI0
aI1
aI2
aI0
aI0
aI4
aI2
aI1
aI3
aI1
aI1
aI1
aI2
aI2
aI1
aI5
aI0
aI1
aI0
aI3
aI1
aI1
aI1
aI5
aI11
aI1
aI3
aI1
aI2
aI2
aI1
aI0
aI0
aI2
aI1
aI1
aI1
aI3
aI1
aI1
aI1
aI1
aI1
aI4
aI0
aI3
aI2
aI2
aI3
aI3
aI1
aI0
aI1
aI3
aI0
aI1
aI7
aI2
aI2
aI3
aI2
aI2
aI1
aI1
aI6
aI1
aI1
aI0
aI4
aI1
aI2
aI9
aI5
aI0
aI2
aI1
aI1
aI1
aI0
aI1
aI5
aI1
aI0
aI1
aI6
aI3
aI1
aI2
aI0
aI2
aI1
aI1
aI1
aI1
aI2
aI1
aI3
aI1
aI1
aI2
aI0
aI1
aI1
aI0
aI5
aI2
aI2
aI1
aI2
aI0
aI1
aI3
aI3
aI1
aI1
aI1
aI1
aI3
aI2
aI6
aI1
aI2
aI1
aI3
aI1
aI2
aI0
aI1
aI3
aI3
aI0
aI2
aI2
aI5
aI3
aI1
aI1
aI2
aI5
aI1
aI2
aI8
aI2
aI2
aI0
aI3
aI2
aI1
aI1
aI1
aI2
aI2
aI1
aI2
aI4
aI3
aI1
aI1
aI2
aI1
aI0
aI0
aI2
aI1
aI1
aI2
aI2
aI1
aI1
aI1
aI2
aI0
aI1
aI0
aI2
aI1
aI2
aI3
aI1
aI2
aI3
aI1
aI3
aI4
aI1
aI3
aI0
aI2
aI0
aI1
aI1
aI1
aI2
aI1
aI0
aI1
aI1
aI2
aI0
aI3
aI2
aI2
aI2
aI1
aI1
aI3
aI2
aI0
aI2
aI3
aI9
aI15
aI2
aI1
aI1
aI1
aI1
aI4
aI1
aI2
aI0
aI1
aI0
aI2
aI1
aI3
aI2
aI0
aI1
aI1
aI1
aI1
aI1
aI0
aI1
aI2
aI1
aI2
aI1
aI1
aI4
aI1
aI1
aI1
aI1
aI2
aI1
aI1
aI0
aI0
aI1
aI0
aI0
aI3
aI1
aI0
aI1
aI1
aI1
aI2
aI1
aI6
aI7
aI1
aI1
aI2
aI1
aI1
aI3
aI1
aI2
aI2
aI4
aI1
aI1
aI0
aI1
aI5
aI1
aI3
aI4
aI1
aI2
aI2
aI1
aI2
aI1
aI0
aI0
aI2
aI1
aI2
aI3
aI1
aI3
aI0
aI3
aI1
aI0
aI1
aI1
aI2
aI2
aI2
aI1
aI1
aI0
aI0
aI1
aI1
aI1
aI0
aI1
aI1
aI1
aI2
aI0
aI2
aI1
aI1
aI2
aI3
aI1
aI1
aI0
aI0
aI0
aI1
aI2
aI2
aI0
aI1
aI2
aI2
aI2
aI1
aI1
aI1
aI2
aI1
aI1
aI0
aI0
aI1
aI1
aI0
aI0
aI1
aI1
aI3
aI1
aI1
aI0
aI1
aI4
aI1
aI1
aI1
aI2
aI1
aI1
aI1
aI2
aI1
aI0
aI1
aI1
aI3
aI2
aI1
aI1
aI0
aI1
aI3
aI1
aI10
aI0
aI1
aI1
aI1
aI2
aI6
aI3
aI1
aI3
aI1
aI1
aI5
aI1
aI3
aI1
aI2
aI1
aI0
aI2
aI2
aI1
aI2
aI1
aI3
aI2
aI0
aI6
aI1
aI4
aI1
aI1
aI1
aI3
aI0
aI4
aI2
aI3
aI0
aI2
aI2
aI1
aI2
aI1
aI5
aI2
aI0
aI0
aI1
aI1
aI1
aI1
aI2
aI0
aI1
aI0
aI1
aI0
aI1
aI0
aI1
aI1
aI0
aI1
aI1
aI2
aI1
aI0
aI2
aI3
aI2
aI1
aI3
aI2
aI1
aI1
aI2
aI1
aI1
aI1
aI1
aI3
aI1
aI1
aI3
aI0
aI6
aI1
aI3
aI1
aI1
aI1
aI2
aI2
aI1
aI1
aI2
aI2
aI1
aI2
aI1
aI1
aI1
aI4
aI1
aI1
aI1
aI1
aI1
aI3
aI1
aI2
aI1
aI2
aI2
aI6
aI1
aI1
aI2
aI3
aI1
aI0
aI1
aI2
aI2
aI2
aI2
aI3
aI2
aI2
aI2
aI3
aI1
aI2
aI6
aI5
aI6
aI1
aI3
aI2
aI1
aI6
aI7
aI1
aI1
aI1
aI1
aI6
aI2
aI8
aI4
aI1
aI1
aI0
aI1
aI1
aI1
aI2
aI2
aI1
aI1
aI4
aI1
aI1
aI2
aI0
aI1
aI0
aI1
aI1
aI2
aI4
aI1
aI1
aI1
aI2
aI0
aI1
aI3
aI5
aI1
aI2
aI3
aI0
aI11
aI1
aI0
aI1
aI1
aI1
aI1
aI2
aI1
aI2
aI1
aI3
aI1
aI1
aI0
aI2
aI1
aI3
aI1
aI1
aI3
aI1
aI1
aI1
aI0
aI2
aI1
aI9
aI1
aI2
aI1
aI11
aI1
aI1
aI1
aI1
aI1
aI2
aI1
aI0
aI2
aI2
aI0
aI1
aI3
aI1
aI1
aI1
aI1
aI1
aI2
aI0
aI2
aI1
aI1
aI2
aI0
aI1
aI2
aI0
aI2
aI0
aI0
aI2
aI1
aI3
aI1
aI5
aI1
aI1
aI1
aI4
aI9
aI2
aI1
aI1
aI1
aI2
aI1
aI3
aI0
aI1
aI1
aI1
aI2
aI1
aI1
aI1
aI0
aI2
aI1
aI3
aI1
aI0
aI1
aI3
aI1
aI1
aI1
aI1
aI1
aI1
aI1
aI1
aI0
aI1
aI2
aI5
aI1
aI1
aI4
aI1
aI1
aI9
aI1
aI1
aI4
aI0
aI4
aI3
aI1
aI3
aI1
aI2
aI3
aI2
aI4
aI0
aI1
aI1
aI1
aI1
aI3
aI1
aI11
aI0
aI1
aI3
aI1
aI2
aI0
aI1
aI1
aI1
aI3
aI3
aI2
aI8
aI0
aI1
aI4
aI2
aI1
aI1
aI0
aI2
aI0
aI0
aI2
aI1
aI3
aI2
aI1
aI2
aI0
aI1
aI1
aI0
aI1
aI1
aI5
aI1
aI2
aI2
aI1
aI3
aI1
aI0
aI1
aI1
aI1
aI1
aI1
aI1
aI0
aI1
aI0
aI1
aI2
aI1
aI0
aI2
aI2
aI1
aI1
aI1
aI5
aI2
aI13
aI2
aI2
aI1
aI1
aI3
aI3
aI3
aI1
aI1
aI0
aI1
aI3
aI4
aI2
aI4
aI1
aI2
aI1
aI1
aI2
aI2
aI1
aI1
aI2
aI4
aI3
aI1
aI2
aI2
aI2
aI6
aI2
aI1
aI3
aI3
aI2
aI3
aI1
aI6
aI2
aI1
aI1
aI3
aI0
aI2
aI0
aI1
aI1
aI1
aI2
aI3
aI0
aI1
aI1
aI1
aI3
aI1
aI1
aI1
aI1
aI4
aI1
aI1
aI11
aI3
aI1
aI1
aI1
aI0
aI1
aI1
aI0
aI1
aI2
aI1
aI3
aI1
aI2
aI1
aI2
aI1
aI2
aI1
aI1
aI29
aI1
aI2
aI0
aI1
aI0
aI0
aI2
aI2
aI1
aI1
aI12
aI1
aI1
aI2
aI2
aI1
aI1
aI1
aI2
aI1
aI2
aI4
aI1
aI0
aI1
aI3
aI2
aI1
aI12
aI2
aI2
aI0
aI1
aI3
aI0
aI7
aI1
aI0
aI1
aI1
aI0
aI0
aI3
aI0
aI0
aI2
aI2
aI1
aI1
aI2
aI1
aI1
aI1
aI1
aI1
aI1
aI1
aI0
aI1
aI2
aI1
aI3
aI0
aI1
aI2
aI1
aI1
aI0
aI1
aI2
aI2
aI4
aI2
aI1
aI9
aI5
aI1
aI2
aI1
aI3
aI0
aI5
aI1
aI2
aI4
aI5
aI1
aI1
aI1
aI1
aI2
aI0
aI0
aI2
aI1
aI2
aI1
aI7
aI1
aI2
aI0
aI0
aI1
aI1
aI1
aI1
aI0
aI0
aI0
aI0
aI1
aI1
aI1
aI2
aI1
aI1
aI1
aI1
aI1
aI11
aI3
aI1
aI1
aI1
aI1
aI1
aI2
aI1
aI0
aI5
aI0
aI1
aI2
aI1
aI1
aI1
aI2
aI2
aI1
aI23
aI0
aI1
aI1
aI2
aI1
aI1
aI1
aI1
aI1
aI2
aI0
aI3
aI3
aI1
aI2
aI1
aI1
aI1
aI1
aI1
aI1
aI1
aI1
aI1
aI2
aI2
aI7
aI0
aI3
aI0
aI1
aI4
aI0
aI1
aI3
aI2
aI1
aI2
aI1
aI1
aI2
aI1
aI1
aI1
aI1
aI2
aI1
aI2
aI0
aI1
aI1
aI2
aI3
aI1
aI1
aI1
aI1
aI0
aI2
aI1
aI1
aI0
aI1
aI2
aI1
aI1
aI2
aI1
aI1
aI7
aI2
aI2
aI1
aI1
aI2
aI1
aI2
aI1
aI1
aI2
aI1
aI3
aI1
aI2
aI7
aI2
aI1
aI1
aI7
aI2
aI2
aI2
aI2
aI1
aI1
aI3
aI3
aI4
aI1
aI3
aI2
aI0
aI0
aI1
aI1
aI1
aI0
aI3
aI0
aI1
aI1
aI1
aI0
aI1
aI3
aI1
aI1
aI6
aI0
aI20
aI1
aI13
aI0
aI18
aI3
aI1
aI7
aI1
aI2
aI0
aI0
aI2
aI0
aI2
aI1
aI0
aI1
aI0
aI1
aI2
aI1
aI1
aI1
aI0
aI1
aI1
aI1
aI0
aI1
aI4
aI1
aI8
aI1
aI1
aI1
aI1
aI1
aI1
aI1
aI0
aI0
aI12
aI1
aI0
aI3
aI2
aI1
aI3
aI1
aI1
aI1
aI1
aI0
aI3
aI5
aI1
aI1
aI0
aI1
aI1
aI1
aI1
aI2
aI1
aI1
aI2
aI1
aI1
aI5
aI1
aI0
aI1
aI1
aI1
aI2
aI1
aI2
aI1
aI2
aI2
aI1
aI6
aI0
aI1
aI1
aI0
aI1
aI1
aI1
aI3
aI2
aI2
aI3
aI1
aI3
aI1
aI2
aI1
aI2
aI7
aI1
aI1
aI1
aI0
aI2
aI1
aI3
aI2
aI3
aI1
aI2
aI2
aI2
aI0
aI0
aI7
aI0
aI0
aI2
aI3
aI1
aI1
aI0
aI1
aI2
aI2
aI1
aI2
aI2
aI1
aI2
aI2
aI2
aI1
aI1
aI2
aI1
aI1
aI4
aI4
aI1
aI1
aI0
aI2
aI1
aI2
aI1
aI28
aI4
aI3
aI1
aI2
aI0
aI4
aI0
aI0
aI7
aI2
aI0
aI3
aI1
aI8
aI2
aI0
aI2
aI1
aI2
aI3
aI0
aI5
aI1
aI2
aI0
aI1
aI2
aI1
aI1
aI1
aI1
aI1
aI6
aI0
aI2
aI0
aI1
aI2
aI0
aI1
aI1
aI1
aI5
aI1
aI0
aI3
aI1
aI1
aI2
aI1
aI0
aI1
aI2
aI2
aI2
aI0
aI2
aI1
aI1
aI0
aI1
aI2
aI2
aI1
aI0
aI0
aI1
aI5
aI6
aI2
aI6
aI0
aI0
aI1
aI0
aI0
aI1
aI1
aI1
aI1
aI2
aI2
aI1
aI1
aI2
aI1
aI3
aI5
aI1
aI2
aI1
aI0
aI1
aI0
aI2
aI1
aI2
aI4
aI4
aI1
aI1
aI2
aI1
aI1
aI0
aI0
aI3
aI1
aI2
aI0
aI2
aI4
aI1
aI0
aI2
aI1
aI1
aI1
aI1
aI1
aI1
aI0
aI2
aI2
aI1
aI3
aI1
aI1
aI3
aI1
aI1
aI4
aI2
aI0
aI1
aI2
aI1
aI2
aI1
aI1
aI0
aI1
aI1
aI3
aI8
aI2
aI2
aI1
aI2
aI2
aI1
aI2
aI1
aI1
aI1
aI3
aI0
aI2
aI1
aI1
aI1
aI1
aI2
aI2
aI2
aI1
aI1
aI1
aI1
aI2
aI1
aI20
aI1
aI3
aI1
aI3
aI1
aI1
aI1
aI1
aI1
aI1
aI2
aI2
aI0
aI2
aI1
aI1
aI0
aI1
aI1
aI2
aI1
aI1
aI3
aI6
aI0
aI1
aI1
aI0
aI2
aI0
aI0
aI1
aI2
aI0
aI3
aI1
aI4
aI1
aI1
aI2
aI4
aI1
aI1
aI1
aI1
aI1
aI3
aI1
aI1
aI1
aI3
aI1
aI1
aI5
aI1
aI1
aI2
aI1
aI2
aI0
aI1
aI1
aI2
aI1
aI0
aI5
aI1
aI0
aI0
aI0
aI1
aI2
aI2
aI1
aI2
aI1
aI1
aI0
aI1
aI1
aI0
aI7
aI1
aI1
aI2
aI1
aI1
aI1
aI2
aI0
aI1
aI1
aI1
aI1
aI2
aI0
aI0
aI1
aI1
aI1
aI0
aI1
aI0
aI3
aI0
aI2
aI0
aI1
aI1
aI0
aI2
aI1
aI2
aI4
aI2
aI0
aI1
aI1
aI0
aI1
aI2
aI0
aI1
aI2
aI1
aI8
aI5
aI2
aI1
aI2
aI2
aI1
aI6
aI1
aI1
aI5
aI0
aI1
aI0
aI2
aI0
aI1
aI1
aI3
aI2
aI1
aI1
aI0
aI1
aI0
aI1
aI5
aI1
aI1
aI0
aI8
aI2
aI2
aI0
aI3
aI3
aI5
aI4
aI1
aI1
aI1
aI5
aI4
aI1
aI0
aI1
aI0
aI3
aI1
aI2
aI2
aI1
aI2
aI2
aI8
aI2
aI1
aI1
aI1
aI1
aI5
aI0
aI2
aI4
aI2
aI1
aI1
aI1
aI0
aI5
aI2
aI1
aI2
aI0
aI1
aI4
aI0
aI2
aI2
aI2
aI2
aI9
aI0
aI1
aI1
aI1
aI0
aI1
aI2
aI14
aI0
aI1
aI10
aI1
aI0
aI2
aI0
aI1
aI1
aI3
aI0
aI3
aI2
aI1
aI1
aI5
aI1
aI1
aI0
aI1
aI2
aI0
aI2
aI2
aI1
aI1
aI2
aI0
aI1
aI1
aI2
aI1
aI2
aI3
aI2
aI2
aI0
aI2
aI1
aI4
aI1
aI2
aI2
aI1
aI3
aI0
aI2
aI1
aI2
aI0
aI2
aI1
aI1
aI4
aI2
aI2
aI1
aI3
aI1
aI15
aI1
aI2
aI3
aI4
aI1
aI1
aI0
aI4
aI2
aI1
aI13
aI1
aI1
aI1
aI1
aI1
aI1
aI1
aI2
aI1
aI1
aI1
aI2
aI1
aI1
aI0
aI2
aI1
aI1
aI1
aI2
aI3
aI1
aI2
aI1
aI1
aI2
aI3
aI2
aI2
aI2
aI1
aI1
aI2
aI1
aI1
aI2
aI1
aI2
aI0
aI1
aI1
aI0
aI2
aI2
aI3
aI3
aI1
aI2
aI2
aI2
aI1
aI4
aI1
aI1
aI2
aI2
aI1
aI3
aI2
aI1
aI1
aI5
aI1
aI1
aI1
aI2
aI1
aI1
aI2
aI1
aI1
aI2
aI2
aI2
aI1
aI2
aI7
aI0
aI2
aI2
aI1
aI1
aI1
aI1
aI1
aI2
aI2
aI1
aI0
aI1
aI9
aI0
aI1
aI2
aI2
aI1
aI1
aI1
aI1
aI2
aI2
aI2
aI1
aI1
aI2
aI1
aI1
aI19
aI0
aI1
aI2
aI0
aI0
aI2
aI1
aI1
aI1
aI2
aI0
aI1
aI2
aI1
aI2
aI1
aI2
aI1
aI1
aI0
aI0
aI1
aI1
aI2
aI0
aI5
aI2
aI1
aI0
aI3
aI2
aI2
aI1
aI1
aI0
aI1
aI27
aI1
aI1
aI6
aI2
aI3
aI1
aI0
aI2
aI3
aI1
aI1
aI0
aI1
aI4
aI1
aI0
aI2
aI2
aI1
aI2
aI1
aI2
aI2
aI1
aI1
aI1
aI1
aI1
aI1
aI2
aI1
aI0
aI3
aI1
aI1
aI2
aI3
aI2
aI0
aI3
aI1
aI2
aI3
aI1
aI1
aI3
aI1
aI1
aI1
aI2
aI0
aI1
aI1
aI2
aI1
aI2
aI1
aI0
aI1
aI1
aI1
aI1
aI1
aI1
aI1
aI2
aI1
aI1
aI1
aI2
aI1
aI1
aI1
aI2
aI1
aI0
aI0
aI1
aI12
aI0
aI0
aI5
aI1
aI5
aI1
aI1
aI0
aI0
aI1
aI2
aI1
aI8
aI0
aI1
aI1
aI2
aI3
aI1
aI0
aI1
aI1
aI1
aI10
aI1
aI0
aI1
aI1
aI1
aI3
aI1
aI2
aI1
aI0
aI1
aI8
aI2
aI2
aI2
aI1
aI2
aI1
aI0
aI1
aI1
aI1
aI2
aI1
aI0
aI1
aI1
aI0
aI1
aI21
aI1
aI1
aI0
aI2
aI3
aI2
aI1
aI2
aI1
aI2
aI1
aI4
aI1
aI2
aI1
aI1
aI1
aI2
aI1
aI0
aI1
aI9
aI2
aI1
aI1
aI1
aI2
aI1
aI2
aI4
aI0
aI0
aI4
aI1
aI1
aI1
aI2
aI1
aI13
aI5
aI2
aI1
aI2
aI1
aI0
aI0
aI1
aI1
aI1
aI1
aI1
aI1
aI6
aI2
aI2
aI1
aI3
aI1
aI1
aI1
aI2
aI1
aI1
aI1
aI6
aI1
aI3
aI1
aI0
aI1
aI1
aI3
aI2
aI1
aI2
aI1
aI1
aI2
aI1
aI0
aI1
aI1
aI1
aI1
aI2
aI2
aI1
aI1
aI1
aI0
aI1
aI1
aI1
aI1
aI2
aI2
aI1
aI1
aI2
aI1
aI0
aI2
aI2
aI0
aI1
aI0
aI0
aI0
aI1
aI3
aI1
aI1
aI1
aI3
aI1
aI0
aI1
aI2
aI1
aI1
aI1
aI7
aI1
aI4
aI1
aI1
aI1
aI1
aI1
aI2
aI1
aI1
aI1
aI1
aI1
aI2
aI0
aI1
aI1
aI1
aI3
aI1
aI0
aI4
aI1
aI1
aI1
aI2
aI3
aI1
aI1
aI1
aI2
aI6
aI0
aI1
aI2
aI1
aI2
aI2
aI3
aI1
aI1
aI1
aI1
aI1
aI2
aI2
aI2
aI9
aI2
aI0
aI1
aI1
aI1
aI1
aI1
aI1
aI2
aI6
aI1
aI2
aI2
aI1
aI3
aI0
aI1
aI5
aI9
aI0
aI1
aI0
aI9
aI1
aI1
aI1
aI1
aI1
aI1
aI0
aI3
aI0
aI1
aI0
aI3
aI3
aI7
aI1
aI1
aI2
aI2
aI1
aI2
aI1
aI1
aI1
aI2
aI1
aI1
aI1
aI1
aI1
aI1
aI1
aI1
aI1
aI1
aI1
aI1
aI2
aI1
aI2
aI1
aI1
aI1
aI1
aI7
aI0
aI1
aI1
aI1
aI0
aI0
aI2
aI0
aI1
aI1
aI1
aI2
aI1
aI1
aI3
aI5
aI1
aI0
aI2
aI1
aI0
aI1
aI1
aI6
aI1
aI1
aI1
aI0
aI1
aI2
aI5
aI0
aI1
aI1
aI2
aI1
aI0
aI0
aI1
aI1
aI1
aI3
aI1
aI1
aI2
aI1
aI1
aI1
aI4
aI1
aI2
aI2
aI2
aI2
aI2
aI7
aI2
aI1
aI2
aI0
aI1
aI1
aI3
aI2
aI1
aI1
aI2
aI1
aI1
aI4
aI3
aI1
aI0
aI2
aI4
aI5
aI3
aI2
aI2
aI0
aI2
aI0
aI1
aI13
aI1
aI4
aI1
aI1
aI2
aI4
aI1
aI1
aI9
aI0
aI2
aI1
aI2
aI1
aI0
aI1
aI1
aI1
aI1
aI1
aI0
aI0
aI2
aI1
aI1
aI1
aI0
aI0
aI1
aI1
aI1
aI1
aI1
aI0
aI1
aI0
aI2
aI1
aI0
aI1
aI1
aI0
aI1
aI3
aI0
aI1
aI1
aI1
aI1
aI1
aI1
aI1
aI1
aI2
aI0
aI24
aI0
aI1
aI1
aI2
aI1
aI7
aI1
aI1
aI0
aI1
aI1
aI3
aI1
aI1
aI2
aI1
aI6
aI5
aI1
aI1
aI2
aI3
aI1
aI1
aI2
aI2
aI1
aI1
aI0
aI1
aI2
aI1
aI3
aI1
aI1
aI1
aI2
aI1
aI1
aI1
aI2
aI2
aI3
aI2
aI2
aI1
aI1
aI1
aI3
aI0
aI2
aI1
aI3
aI1
aI1
aI2
aI1
aI2
aI7
aI1
aI1
aI6
aI1
aI0
aI2
aI1
aI1
aI1
aI2
aI1
aI1
aI3
aI0
aI2
aI0
aI1
aI1
aI1
aI3
aI0
aI1
aI1
aI0
aI1
aI1
aI4
aI3
aI1
aI2
aI4
aI0
aI1
aI1
aI1
aI2
aI2
aI0
aI3
aI1
aI1
aI1
aI1
aI1
aI2
aI2
aI1
aI1
aI1
aI1
aI0
aI1
aI1
aI1
aI0
aI1
aI3
aI3
aI1
aI2
aI1
aI1
aI1
aI1
aI1
aI1
aI1
aI2
aI1
aI10
aI3
aI2
aI1
aI0
aI2
aI1
aI2
aI4
aI1
aI1
aI0
aI1
aI1
aI1
aI1
aI0
aI3
aI2
aI0
aI2
aI1
aI1
aI0
aI1
aI2
aI1
aI2
aI1
aI1
aI1
aI3
aI1
aI2
aI1
aI2
aI1
aI28
aI1
aI0
aI0
aI2
aI0
aI1
aI1
aI0
aI1
aI1
aI1
aI1
aI1
aI2
aI1
aI4
aI2
aI2
aI1
aI0
aI0
aI1
aI1
aI1
aI1
aI0
aI3
aI0
aI3
aI1
aI1
aI2
aI1
aI1
aI12
aI0
aI2
aI1
aI1
aI5
aI1
aI1
aI1
aI3
aI1
aI1
aI3
aI3
aI2
aI1
aI1
aI2
aI0
aI1
aI0
aI1
aI3
aI4
aI1
aI6
aI1
aI2
aI1
aI1
aI2
aI1
aI3
aI3
aI0
aI3
aI3
aI0
aI1
aI3
aI11
aI0
aI3
aI0
aI0
aI0
aI0
aI2
aI1
aI1
aI1
aI1
aI1
aI2
aI0
aI1
aI1
aI1
aI1
aI1
aI1
aI1
aI2
aI1
aI1
aI10
aI2
aI4
aI2
aI1
aI1
aI2
aI1
aI1
aI1
aI2
aI1
aI1
aI1
aI8
aI12
aI2
aI1
aI2
aI2
aI1
aI3
aI19
aI1
aI4
aI1
aI1
aI2
aI5
aI2
aI0
aI1
aI1
aI2
aI2
aI2
aI1
aI1
aI0
aI1
aI1
aI4
aI1
aI2
aI1
aI1
aI0
aI8
aI3
aI0
aI1
aI1
aI1
aI1
aI4
aI1
aI1
aI2
aI1
aI8
aI2
aI0
aI2
aI1
aI1
aI4
aI1
aI1
aI1
aI0
aI0
aI1
aI4
aI1
aI1
aI3
aI2
aI2
aI1
aI1
aI2
aI2
aI1
aI1
aI1
aI0
aI1
aI1
aI1
aI0
aI3
aI0
aI0
aI2
aI0
aI1
aI1
aI1
aI4
aI1
aI0
aI2
aI1
aI1
aI3
aI1
aI1
aI1
aI2
aI2
aI1
aI2
aI1
aI0
aI2
aI0
aI2
aI1
aI4
aI2
aI1
aI1
aI1
aI0
aI2
aI3
aI1
aI1
aI0
aI2
aI4
aI1
aI1
aI1
aI1
aI4
aI1
aI3
aI6
aI1
aI2
aI1
aI3
aI1
aI1
aI2
aI0
aI2
aI1
aI4
aI0
aI2
aI1
aI1
aI3
aI5
aI0
aI0
aI1
aI1
aI2
aI1
aI0
aI1
aI3
aI1
aI6
aI1
aI0
aI1
aI2
aI4
aI0
aI1
aI2
aI1
aI1
aI1
aI2
aI6
aI5
aI2
aI10
aI1
aI2
aI3
aI6
aI2
aI1
aI1
aI2
aI1
aI1
aI4
aI0
aI1
aI1
aI1
aI1
aI5
aI0
aI1
aI1
aI1
aI1
aI1
aI2
aI1
aI0
aI2
aI3
aI0
aI3
aI3
aI1
aI1
aI1
aI0
aI2
aI1
aI2
aI0
aI0
aI1
aI6
aI1
aI2
aI2
aI4
aI1
aI4
aI1
aI0
aI2
aI1
aI1
aI2
aI2
aI1
aI1
aI0
aI11
aI1
aI0
aI1
aI1
aI0
aI2
aI1
aI0
aI3
aI2
aI1
aI4
aI2
aI1
aI4
aI1
aI1
aI1
aI1
aI0
aI1
aI1
aI1
aI3
aI1
aI0
aI1
aI2
aI1
aI1
aI2
aI19
aI2
aI1
aI2
aI3
aI2
aI3
aI5
aI1
aI4
aI1
aI1
aI1
aI0
aI0
aI3
aI1
aI1
aI2
aI2
aI3
aI5
aI1
aI2
aI1
aI0
aI2
aI1
aI2
aI0
aI2
aI3
aI0
aI4
aI1
aI1
aI2
aI0
aI1
aI4
aI1
aI1
aI4
aI2
aI1
aI1
aI3
aI1
aI1
aI0
aI1
aI0
aI1
aI1
aI0
aI1
aI1
aI0
aI1
aI1
aI2
aI0
aI2
aI1
aI0
aI2
aI2
aI0
aI1
aI3
aI1
aI0
aI1
aI1
aI2
aI7
aI4
aI0
aI2
aI1
aI5
aI1
aI1
aI0
aI1
aI1
aI2
aI5
aI4
aI2
aI4
aI1
aI1
aI1
aI1
aI0
aI1
aI1
aI0
aI27
aI1
aI1
aI1
aI1
aI1
aI1
aI1
aI0
aI1
aI1
aI0
aI1
aI4
aI1
aI2
aI1
aI6
aI1
aI2
aI2
aI1
aI4
aI13
aI2
aI1
aI2
aI1
aI1
aI2
aI2
aI2
aI2
aI1
aI1
aI0
aI2
aI2
aI1
aI2
aI3
aI2
aI11
aI1
aI0
aI1
aI2
aI1
aI1
aI3
aI1
aI1
aI5
aI1
aI0
aI5
aI1
aI2
aI1
aI4
aI1
aI1
aI1
aI2
aI2
aI3
aI1
aI2
aI1
aI1
aI1
aI2
aI1
aI3
aI1
aI0
aI0
aI2
aI0
aI1
aI1
aI1
aI5
aI1
aI1
aI0
aI7
aI1
aI2
aI1
aI1
aI1
aI2
aI1
aI1
aI1
aI1
aI1
aI1
aI20
aI2
aI4
aI0
aI0
aI1
aI1
aI0
aI2
aI1
aI0
aI1
aI1
aI6
aI0
aI1
aI2
aI2
aI1
aI1
aI1
aI6
aI2
aI2
aI2
aI6
aI1
aI0
aI1
aI1
aI0
aI1
aI1
aI6
aI2
aI6
aI1
aI0
aI0
aI1
aI1
aI2
aI1
aI0
aI1
aI0
aI1
aI4
aI1
aI1
aI3
aI1
aI2
aI1
aI1
aI2
aI2
aI1
aI1
aI1
aI1
aI2
aI3
aI11
aI1
aI1
aI1
aI18
aI5
aI1
aI1
aI2
aI3
aI1
aI1
aI0
aI2
aI12
aI1
aI1
aI1
aI1
aI2
aI0
aI1
aI1
aI2
aI1
aI1
aI1
aI2
aI1
aI5
aI1
aI2
aI1
aI1
aI0
aI4
aI2
aI2
aI2
aI1
aI0
aI3
aI1
aI7
aI2
aI1
aI0
aI0
aI2
aI1
aI1
aI1
aI1
aI2
aI2
aI1
aI1
aI2
aI2
aI1
aI2
aI1
aI1
aI2
aI1
aI1
aI1
aI2
aI0
aI1
aI0
aI0
aI1
aI0
aI1
aI1
aI1
aI0
aI2
aI0
aI2
aI3
aI1
aI1
aI1
aI1
aI2
aI2
aI4
aI1
aI0
aI1
aI0
aI1
aI2
aI1
aI3
aI1
aI0
aI1
aI1
aI0
aI2
aI2
aI1
aI2
aI0
aI2
aI3
aI1
aI3
aI0
aI2
aI2
aI0
aI4
aI1
aI1
aI2
aI1
aI1
aI4
aI1
aI1
aI1
aI2
aI3
aI2
aI0
aI2
aI1
aI1
aI1
aI2
aI4
aI0
aI5
aI1
aI0
aI3
aI0
aI1
aI0
aI0
aI1
aI3
aI1
aI1
aI1
aI1
aI2
aI0
aI2
aI0
aI2
aI1
aI1
aI1
aI1
aI5
aI1
aI2
aI0
aI4
aI2
aI1
aI1
aI2
aI1
aI3
aI2
aI2
aI1
aI1
aI1
aI1
aI4
aI1
aI0
aI1
aI15
aI1
aI1
aI1
aI0
aI1
aI1
aI4
aI1
aI1
aI1
aI2
aI1
aI3
aI4
aI1
aI0
aI2
aI3
aI4
aI0
aI0
aI1
aI1
aI1
aI1
aI0
aI0
aI1
aI3
aI0
aI1
aI0
aI2
aI1
aI2
aI1
aI0
aI0
aI0
aI1
aI0
aI0
aI1
aI1
aI1
aI1
aI1
aI1
aI3
aI2
aI1
aI2
aI0
aI1
aI1
aI1
aI1
aI1
aI1
aI6
aI2
aI1
aI3
aI3
aI1
aI1
aI0
aI2
aI1
aI3
aI1
aI3
aI9
aI2
aI1
aI2
aI1
aI1
aI2
aI4
aI1
aI3
aI9
aI2
aI7
aI1
aI1
aI0
aI3
aI2
aI1
aI1
aI1
aI1
aI2
aI2
aI2
aI1
aI0
aI2
aI2
aI1
aI2
aI1
aI1
aI1
aI2
aI20
aI12
aI2
aI1
aI1
aI0
aI0
aI1
aI2
aI2
aI0
aI3
aI3
aI2
aI3
aI1
aI2
aI1
aI5
aI0
aI2
aI1
aI0
aI2
aI3
aI2
aI0
aI0
aI0
aI2
aI5
aI1
aI0
aI1
aI1
aI0
aI1
aI1
aI10
aI1
aI1
aI2
aI1
aI2
aI4
aI2
aI1
aI0
aI1
aI2
aI6
aI1
aI3
aI5
aI2
aI1
aI2
aI2
aI1
aI1
aI2
aI0
aI1
aI1
aI1
aI3
aI3
aI1
aI7
aI1
aI2
aI6
aI6
aI1
aI0
aI0
aI0
aI0
aI1
aI1
aI1
aI1
aI3
aI1
aI1
aI1
aI1
aI1
aI1
aI1
aI1
aI5
aI0
aI0
aI0
aI3
aI1
aI1
aI1
aI6
aI1
aI1
aI1
aI1
aI1
aI1
aI1
aI4
aI1
aI1
aI1
aI0
aI4
aI1
aI2
aI1
aI1
aI2
aI2
aI0
aI1
aI1
aI1
aI2
aI0
aI0
aI10
aI2
aI1
aI1
aI2
aI2
aI2
aI0
aI2
aI1
aI1
aI3
aI1
aI41
aI2
aI2
aI1
aI6
aI3
aI1
aI1
aI2
aI0
aI4
aI1
aI3
aI1
aI1
aI1
aI1
aI3
aI1
aI35
aI1
aI1
aI1
aI2
aI1
aI1
aI1
aI2
aI1
aI0
aI1
aI3
aI2
aI2
aI0
aI2
aI1
aI1
aI1
aI4
aI5
aI1
aI1
aI0
aI1
aI1
aI0
aI0
aI2
aI0
aI3
aI1
aI1
aI1
aI0
aI2
aI0
aI4
aI1
aI1
aI2
aI0
aI2
aI2
aI1
aI1
aI1
aI2
aI0
aI2
aI1
aI1
aI1
aI0
aI2
aI1
aI1
aI1
aI2
aI0
aI2
aI3
aI1
aI2
aI3
aI1
aI1
aI3
aI0
aI0
aI1
aI1
aI1
aI1
aI1
aI3
aI1
aI3
aI2
aI0
aI1
aI1
aI8
aI5
aI1
aI0
aI2
aI2
aI1
aI5
aI1
aI0
aI1
aI2
aI1
aI2
aI0
aI3
aI0
aI1
aI0
aI0
aI2
aI0
aI3
aI2
aI0
aI0
aI1
aI1
aI2
aI1
aI0
aI1
aI0
aI17
aI0
aI4
aI1
aI2
aI3
aI1
aI1
aI2
aI1
aI1
aI2
aI0
aI6
aI3
aI0
aI0
aI3
aI3
aI1
aI0
aI0
aI3
aI9
aI2
aI1
aI4
aI2
aI3
aI0
aI0
aI1
aI2
aI3
aI1
aI0
aI2
aI2
aI1
aI0
aI1
aI0
aI3
aI0
aI3
aI1
aI2
aI2
aI1
aI0
aI1
aI1
aI2
aI1
aI1
aI3
aI3
aI3
aI3
aI1
aI1
aI1
aI1
aI2
aI1
aI5
aI1
aI1
aI2
aI2
aI2
aI2
aI0
aI3
aI4
aI1
aI5
aI0
aI4
aI1
aI1
aI1
aI1
aI5
aI1
aI1
aI2
aI1
aI1
aI1
aI1
aI2
aI1
aI1
aI1
aI3
aI2
aI1
aI2
aI2
aI1
aI1
aI1
aI2
aI9
aI0
aI1
aI1
aI1
aI1
aI4
aI2
aI2
aI2
aI1
aI4
aI4
aI0
aI0
aI1
aI1
aI1
aI2
aI3
aI1
aI1
aI1
aI2
aI0
aI1
aI3
aI2
aI2
aI1
aI2
aI1
aI1
aI1
aI0
aI2
aI0
aI1
aI2
aI1
aI1
aI0
aI1
aI0
aI1
aI2
aI1
aI0
aI0
aI0
aI1
aI1
aI0
aI1
aI1
aI2
aI4
aI3
aI4
aI2
aI3
aI6
aI3
aI1
aI2
aI1
aI1
aI1
aI0
aI2
aI3
aI2
aI1
aI1
aI1
aI3
aI3
aI0
aI0
aI17
aI1
aI6
aI1
aI1
aI2
aI0
aI2
aI1
aI0
aI3
aI4
aI1
aI0
aI2
aI0
aI0
aI3
aI4
aI0
aI1
aI1
aI1
aI1
aI1
aI3
aI1
aI1
aI1
aI2
aI4
aI1
aI1
aI3
aI0
aI2
aI2
aI0
aI8
aI1
aI3
aI5
aI6
aI9
aI1
aI1
aI3
aI0
aI3
aI1
aI1
aI0
aI3
aI11
aI3
aI1
aI1
aI2
aI1
aI1
aI1
aI0
aI1
aI2
aI1
aI1
aI1
aI7
aI1
aI4
aI1
aI0
aI1
aI1
aI2
aI2
aI4
aI1
aI0
aI1
aI1
aI0
aI1
aI1
aI0
aI2
aI1
aI7
aI2
aI4
aI1
aI3
aI1
aI12
aI5
aI3
aI1
aI1
aI2
aI1
aI2
aI3
aI0
aI1
aI1
aI1
aI1
aI0
aI1
aI0
aI2
aI2
aI1
aI4
aI2
aI1
aI1
aI2
aI3
aI2
aI1
aI0
aI3
aI1
aI0
aI4
aI1
aI0
aI1
aI1
aI1
aI0
aI2
aI6
aI1
aI1
aI1
aI5
aI2
aI1
aI1
aI2
aI1
aI1
aI2
aI1
aI1
aI0
aI1
aI1
aI6
aI1
aI0
aI1
aI2
aI5
aI1
aI1
aI0
aI0
aI1
aI1
aI4
aI0
aI1
aI2
aI3
aI1
aI1
aI2
aI1
aI1
aI1
aI1
aI4
aI1
aI1
aI0
aI1
aI3
aI3
aI1
aI1
aI1
aI1
aI4
aI0
aI1
aI9
aI2
aI0
aI1
aI1
aI0
aI1
aI2
aI2
aI1
aI1
aI1
aI3
aI1
aI1
aI3
aI2
aI1
aI1
aI1
aI0
aI2
aI1
aI0
aI2
aI1
aI1
aI3
aI1
aI1
aI0
aI0
aI5
aI2
aI4
aI1
aI0
aI2
aI2
aI13
aI1
aI8
aI1
aI1
aI2
aI1
aI1
aI1
aI1
aI1
aI1
aI1
aI4
aI1
aI1
aI1
aI2
aI0
aI1
aI1
aI2
aI0
aI1
aI1
aI2
aI1
aI1
aI1
aI10
aI3
aI1
aI0
aI3
aI2
aI5
aI1
aI1
aI3
aI1
aI1
aI0
aI1
aI1
aI1
aI1
aI3
aI1
aI0
aI1
aI1
aI2
aI1
aI0
aI0
aI2
aI2
aI1
aI1
aI1
aI1
aI1
aI1
aI2
aI1
aI1
aI2
aI2
aI2
aI1
aI2
aI1
aI2
aI1
aI1
aI2
aI0
aI1
aI0
aI3
aI0
aI1
aI2
aI13
aI0
aI2
aI1
aI2
aI2
aI1
aI2
aI1
aI1
aI1
aI1
aI1
aI1
aI1
aI2
aI1
aI4
aI1
aI1
aI3
aI1
aI1
aI8
aI2
aI1
aI1
aI2
aI1
aI1
aI2
aI2
aI4
aI0
aI1
aI2
aI0
aI1
aI1
aI0
aI0
aI1
aI1
aI1
aI1
aI1
aI1
aI3
aI1
aI1
aI2
aI3
aI2
aI1
aI2
aI1
aI1
aI1
aI2
aI1
aI0
aI1
aI9
aI2
aI1
aI1
aI5
aI0
aI0
aI2
aI1
aI2
aI34
aI2
aI0
aI0
aI0
aI2
aI2
aI1
aI1
aI3
aI0
aI0
aI1
aI1
aI2
aI0
aI1
aI0
aI2
aI2
aI0
aI1
aI1
aI11
aI1
aI2
aI1
aI1
aI0
aI1
aI1
aI0
aI2
aI2
aI2
aI2
aI1
aI1
aI0
aI1
aI3
aI1
aI1
aI2
aI1
aI2
aI1
aI1
aI2
aI0
aI1
aI2
aI1
aI1
aI1
aI1
aI7
aI1
aI1
aI2
aI1
aI1
aI0
aI1
aI3
aI4
aI2
aI2
aI4
aI1
aI1
aI5
aI1
aI4
aI1
aI1
aI3
aI2
aI1
aI1
aI1
aI2
aI1
aI2
aI2
aI2
aI1
aI0
aI1
aI1
aI1
aI1
aI2
aI8
aI1
aI3
aI13
aI1
aI1
aI1
aI0
aI4
aI0
aI1
aI1
aI1
aI2
aI1
aI1
aI3
aI0
aI5
aI4
aI1
aI0
aI4
aI1
aI2
aI0
aI8
aI8
aI7
aI0
aI1
aI1
aI0
aI1
aI1
aI1
aI1
aI2
aI6
aI1
aI0
aI0
aI1
aI1
aI1
aI5
aI2
aI6
aI4
aI1
aI0
aI1
aI1
aI1
aI1
aI1
aI2
aI2
aI4
aI1
aI1
aI1
aI2
aI1
aI1
aI1
aI4
aI5
aI1
aI2
aI1
aI1
aI1
aI0
aI6
aI8
aI4
aI2
aI1
aI2
aI2
aI0
aI1
aI1
aI1
aI2
aI1
aI0
aI0
aI6
aI0
aI1
aI0
aI4
aI1
aI0
aI1
aI7
aI1
aI1
aI3
aI0
aI1
aI1
aI1
aI1
aI1
aI0
aI0
aI1
aI1
aI2
aI2
aI1
aI1
aI1
aI1
aI1
aI1
aI5
aI3
aI2
aI1
aI0
aI0
aI1
aI0
aI2
aI1
aI2
aI1
aI1
aI1
aI1
aI1
aI1
aI0
aI0
aI1
aI1
aI1
aI1
aI5
aI1
aI2
aI1
aI1
aI1
aI1
aI1
aI1
aI1
aI1
aI3
aI4
aI2
aI3
aI1
aI1
aI2
aI1
aI2
aI1
aI3
aI0
aI1
aI0
aI2
aI2
aI3
aI1
aI1
aI0
aI2
aI3
aI1
aI1
aI0
aI2
aI1
aI2
aI0
aI1
aI65
aI0
aI1
aI1
aI1
aI2
aI1
aI1
aI8
aI0
aI0
aI1
aI1
aI3
aI2
aI2
aI2
aI0
aI1
aI1
aI1
aI6
aI2
aI4
aI1
aI1
aI1
aI2
aI1
aI1
aI0
aI3
aI0
aI1
aI1
aI1
aI1
aI0
aI1
aI1
aI1
aI1
aI1
aI1
aI0
aI0
aI1
aI0
aI0
aI1
aI0
aI1
aI2
aI1
aI1
aI1
aI1
aI1
aI3
aI8
aI2
aI1
aI0
aI2
aI1
aI1
aI1
aI0
aI1
aI1
aI2
aI1
aI1
aI2
aI1
aI1
aI1
aI0
aI1
aI2
aI1
aI1
aI1
aI1
aI4
aI1
aI1
aI1
aI13
aI1
aI0
aI3
aI2
aI4
aI0
aI2
aI5
aI1
aI1
aI6
aI4
aI0
aI1
aI1
aI1
aI2
aI0
aI1
aI0
aI1
aI1
aI2
aI2
aI1
aI2
aI1
aI2
aI1
aI1
aI2
aI1
aI1
aI1
aI1
aI2
aI1
aI1
aI12
aI0
aI1
aI2
aI2
aI1
aI1
aI0
aI2
aI1
aI1
aI0
aI2
aI1
aI1
aI2
aI1
aI2
aI1
aI1
aI4
aI1
aI2
aI1
aI1
aI3
aI2
aI1
aI4
aI4
aI0
aI1
aI2
aI1
aI3
aI1
aI1
aI0
aI1
aI0
aI2
aI3
aI1
aI2
aI3
aI6
aI1
aI4
aI1
aI1
aI1
aI0
aI2
aI2
aI1
aI1
aI4
aI3
aI2
aI4
aI1
aI2
aI1
aI0
aI1
aI1
aI1
aI6
aI1
aI2
aI0
aI2
aI1
aI1
aI2
aI0
aI1
aI1
aI1
aI1
aI1
aI0
aI1
aI1
aI2
aI1
aI2
aI1
aI2
aI2
aI4
aI1
aI1
aI0
aI0
aI1
aI0
aI4
aI0
aI1
aI1
aI0
aI1
aI2
aI5
aI0
aI1
aI1
aI0
aI2
aI2
aI1
aI1
aI3
aI0
aI1
aI5
aI1
aI2
aI1
aI3
aI1
aI2
aI1
aI1
aI1
aI1
aI1
aI1
aI1
aI1
aI1
aI3
aI2
aI0
aI1
aI0
aI1
aI2
aI0
aI1
aI1
aI2
aI0
aI2
aI0
aI3
aI1
aI1
aI1
aI1
aI1
aI1
aI1
aI1
aI1
aI3
aI1
aI2
aI2
aI1
aI3
aI2
aI2
aI1
aI0
aI0
aI5
aI0
aI0
aI6
aI1
aI2
aI1
aI2
aI2
aI0
aI1
aI1
aI3
aI1
aI2
aI1
aI1
aI3
aI1
aI0
aI2
aI1
aI1
aI1
aI1
aI1
aI2
aI4
aI1
aI2
aI1
aI0
aI4
aI1
aI1
aI1
aI3
aI1
aI1
aI0
aI2
aI3
aI1
aI1
aI1
aI1
aI2
aI1
aI0
aI4
aI0
aI2
aI1
aI5
aI10
aI1
aI1
aI1
aI0
aI4
aI1
aI2
aI1
aI1
aI2
aI1
aI1
aI2
aI1
aI0
aI2
aI1
aI0
aI1
aI2
aI1
aI1
aI0
aI1
aI3
aI3
aI2
aI1
aI2
aI2
aI5
aI2
aI1
aI4
aI1
aI1
aI1
aI1
aI1
aI1
aI3
aI1
aI1
aI1
aI1
aI1
aI3
aI1
aI1
aI1
aI3
aI1
aI2
aI1
aI0
aI1
aI0
aI2
aI1
aI1
aI3
aI1
aI2
aI2
aI0
aI1
aI1
aI1
aI5
aI1
aI1
aI1
aI3
aI2
aI2
aI2
aI1
aI1
aI2
aI3
aI1
aI1
aI1
aI1
aI9
aI1
aI1
aI9
aI3
aI1
aI1
aI1
aI1
aI0
aI2
aI0
aI1
aI1
aI0
aI3
aI4
aI2
aI1
aI1
aI1
aI2
aI4
aI2
aI1
aI2
aI10
aI2
aI0
aI1
aI2
aI1
aI1
aI1
aI2
aI1
aI1
aI1
aI3
aI1
aI8
aI0
aI1
aI1
aI1
aI26
aI1
aI1
aI1
aI1
aI1
aI1
aI1
aI0
aI1
aI1
aI2
aI1
aI1
aI1
aI1
aI2
aI1
aI1
aI1
aI2
aI0
aI4
aI4
aI2
aI1
aI1
aI3
aI2
aI0
aI2
aI1
aI1
aI1
aI2
aI1
aI1
aI2
aI2
aI2
aI0
aI1
aI1
aI1
aI2
aI1
aI3
aI3
aI1
aI1
aI1
aI2
aI1
aI1
aI3
aI2
aI1
aI1
aI1
aI0
aI1
aI2
aI1
aI1
aI4
aI0
aI1
aI1
aI1
aI1
aI2
aI0
aI1
aI3
aI2
aI0
aI2
aI7
aI1
aI2
aI1
aI3
aI2
aI1
aI0
aI0
aI2
aI4
aI2
aI4
aI1
aI3
aI0
aI0
aI0
aI1
aI1
aI2
aI6
aI1
aI1
aI1
aI2
aI8
aI0
aI1
aI3
aI2
aI1
aI2
aI1
aI1
aI1
aI1
aI0
aI1
aI1
aI0
aI1
aI1
aI2
aI1
aI1
aI2
aI4
aI1
aI1
aI0
aI0
aI2
aI2
aI1
aI1
aI0
aI2
aI1
aI0
aI0
aI1
aI3
aI0
aI1
aI2
aI0
aI1
aI3
aI4
aI2
aI1
aI3
aI1
aI2
aI2
aI5
aI1
aI1
aI1
aI1
aI3
aI1
aI2
aI1
aI0
aI2
aI1
aI1
aI2
aI1
a.